
gpio_mgmt.elf:     file format elf32-littleriscv


Disassembly of section .text:

10000000 <start>:
10000000:	00000093          	li	ra,0
10000004:	00000193          	li	gp,0
10000008:	00000213          	li	tp,0
1000000c:	00000293          	li	t0,0
10000010:	00000313          	li	t1,0
10000014:	00000393          	li	t2,0
10000018:	00000413          	li	s0,0
1000001c:	00000493          	li	s1,0
10000020:	00000513          	li	a0,0
10000024:	00000593          	li	a1,0
10000028:	00000613          	li	a2,0
1000002c:	00000693          	li	a3,0
10000030:	00000713          	li	a4,0
10000034:	00000793          	li	a5,0
10000038:	00000813          	li	a6,0
1000003c:	00000893          	li	a7,0
10000040:	00000913          	li	s2,0
10000044:	00000993          	li	s3,0
10000048:	00000a13          	li	s4,0
1000004c:	00000a93          	li	s5,0
10000050:	00000b13          	li	s6,0
10000054:	00000b93          	li	s7,0
10000058:	00000c13          	li	s8,0
1000005c:	00000c93          	li	s9,0
10000060:	00000d13          	li	s10,0
10000064:	00000d93          	li	s11,0
10000068:	00000e13          	li	t3,0
1000006c:	00000e93          	li	t4,0
10000070:	00000f13          	li	t5,0
10000074:	00000f93          	li	t6,0
10000078:	00000517          	auipc	a0,0x0
1000007c:	17850513          	addi	a0,a0,376 # 100001f0 <_etext>
10000080:	00000593          	li	a1,0
10000084:	00000613          	li	a2,0
10000088:	00c5d863          	bge	a1,a2,10000098 <end_init_data>

1000008c <loop_init_data>:
1000008c:	4114                	lw	a3,0(a0)
1000008e:	c194                	sw	a3,0(a1)
10000090:	0511                	addi	a0,a0,4
10000092:	0591                	addi	a1,a1,4
10000094:	fec5cce3          	blt	a1,a2,1000008c <loop_init_data>

10000098 <end_init_data>:
10000098:	00000513          	li	a0,0
1000009c:	00000593          	li	a1,0
100000a0:	00b55763          	bge	a0,a1,100000ae <end_init_bss>

100000a4 <loop_init_bss>:
100000a4:	00052023          	sw	zero,0(a0)
100000a8:	0511                	addi	a0,a0,4
100000aa:	feb54de3          	blt	a0,a1,100000a4 <loop_init_bss>

100000ae <end_init_bss>:
100000ae:	2871                	jal	1000014a <main>

100000b0 <loop>:
100000b0:	a001                	j	100000b0 <loop>
100000b2:	0001                	nop

100000b4 <flashio_worker_begin>:
100000b4:	280002b7          	lui	t0,0x28000
100000b8:	12000313          	li	t1,288
100000bc:	00629023          	sh	t1,0(t0) # 28000000 <_etext+0x17fffe10>
100000c0:	000281a3          	sb	zero,3(t0)
100000c4:	c605                	beqz	a2,100000ec <flashio_worker_L1>
100000c6:	4f21                	li	t5,8
100000c8:	0ff67393          	andi	t2,a2,255

100000cc <flashio_worker_L4>:
100000cc:	0073de93          	srli	t4,t2,0x7
100000d0:	01d28023          	sb	t4,0(t0)
100000d4:	010eee93          	ori	t4,t4,16
100000d8:	01d28023          	sb	t4,0(t0)
100000dc:	0386                	slli	t2,t2,0x1
100000de:	0ff3f393          	andi	t2,t2,255
100000e2:	1f7d                	addi	t5,t5,-1
100000e4:	fe0f14e3          	bnez	t5,100000cc <flashio_worker_L4>
100000e8:	00628023          	sb	t1,0(t0)

100000ec <flashio_worker_L1>:
100000ec:	c9a1                	beqz	a1,1000013c <flashio_worker_L3>
100000ee:	02000f13          	li	t5,32
100000f2:	00052383          	lw	t2,0(a0)

100000f6 <flashio_worker_LY>:
100000f6:	4fa1                	li	t6,8

100000f8 <flashio_worker_L2>:
100000f8:	01f3de93          	srli	t4,t2,0x1f
100000fc:	01d28023          	sb	t4,0(t0)
10000100:	010eee93          	ori	t4,t4,16
10000104:	01d28023          	sb	t4,0(t0)
10000108:	0002ce83          	lbu	t4,0(t0)
1000010c:	002efe93          	andi	t4,t4,2
10000110:	001ede93          	srli	t4,t4,0x1
10000114:	0386                	slli	t2,t2,0x1
10000116:	01d3e3b3          	or	t2,t2,t4
1000011a:	1f7d                	addi	t5,t5,-1
1000011c:	000f1763          	bnez	t5,1000012a <flashio_worker_LX>
10000120:	00752023          	sw	t2,0(a0)
10000124:	0511                	addi	a0,a0,4
10000126:	00052383          	lw	t2,0(a0)

1000012a <flashio_worker_LX>:
1000012a:	1ffd                	addi	t6,t6,-1
1000012c:	fc0f96e3          	bnez	t6,100000f8 <flashio_worker_L2>
10000130:	15fd                	addi	a1,a1,-1
10000132:	f1f1                	bnez	a1,100000f6 <flashio_worker_LY>
10000134:	000f0463          	beqz	t5,1000013c <flashio_worker_L3>
10000138:	00752023          	sw	t2,0(a0)

1000013c <flashio_worker_L3>:
1000013c:	08000313          	li	t1,128
10000140:	006281a3          	sb	t1,3(t0)
10000144:	8082                	ret
10000146:	0001                	nop

10000148 <flashio_worker_end>:
	...

1000014a <main>:
1000014a:	1101                	addi	sp,sp,-32
1000014c:	ce22                	sw	s0,28(sp)
1000014e:	1000                	addi	s0,sp,32
10000150:	210007b7          	lui	a5,0x21000
10000154:	0007a023          	sw	zero,0(a5) # 21000000 <_etext+0x10fffe10>
10000158:	210007b7          	lui	a5,0x21000
1000015c:	0791                	addi	a5,a5,4
1000015e:	0007a023          	sw	zero,0(a5) # 21000000 <_etext+0x10fffe10>
10000162:	210007b7          	lui	a5,0x21000
10000166:	07a1                	addi	a5,a5,8
10000168:	0007a023          	sw	zero,0(a5) # 21000000 <_etext+0x10fffe10>
1000016c:	210007b7          	lui	a5,0x21000
10000170:	07b1                	addi	a5,a5,12
10000172:	0007a023          	sw	zero,0(a5) # 21000000 <_etext+0x10fffe10>
10000176:	fe042623          	sw	zero,-20(s0)
1000017a:	a831                	j	10000196 <main+0x4c>
1000017c:	210007b7          	lui	a5,0x21000
10000180:	4705                	li	a4,1
10000182:	c398                	sw	a4,0(a5)
10000184:	210007b7          	lui	a5,0x21000
10000188:	0007a023          	sw	zero,0(a5) # 21000000 <_etext+0x10fffe10>
1000018c:	fec42783          	lw	a5,-20(s0)
10000190:	0785                	addi	a5,a5,1
10000192:	fef42623          	sw	a5,-20(s0)
10000196:	fec42703          	lw	a4,-20(s0)
1000019a:	47a5                	li	a5,9
1000019c:	fee7d0e3          	bge	a5,a4,1000017c <main+0x32>
100001a0:	fe042623          	sw	zero,-20(s0)
100001a4:	a811                	j	100001b8 <main+0x6e>
100001a6:	210007b7          	lui	a5,0x21000
100001aa:	4705                	li	a4,1
100001ac:	c398                	sw	a4,0(a5)
100001ae:	fec42783          	lw	a5,-20(s0)
100001b2:	0785                	addi	a5,a5,1
100001b4:	fef42623          	sw	a5,-20(s0)
100001b8:	fec42703          	lw	a4,-20(s0)
100001bc:	679d                	lui	a5,0x7
100001be:	52f78793          	addi	a5,a5,1327 # 752f <_ebss+0x752f>
100001c2:	fee7d2e3          	bge	a5,a4,100001a6 <main+0x5c>
100001c6:	fe042623          	sw	zero,-20(s0)
100001ca:	a811                	j	100001de <main+0x94>
100001cc:	210007b7          	lui	a5,0x21000
100001d0:	0007a023          	sw	zero,0(a5) # 21000000 <_etext+0x10fffe10>
100001d4:	fec42783          	lw	a5,-20(s0)
100001d8:	0785                	addi	a5,a5,1
100001da:	fef42623          	sw	a5,-20(s0)
100001de:	fec42703          	lw	a4,-20(s0)
100001e2:	679d                	lui	a5,0x7
100001e4:	52f78793          	addi	a5,a5,1327 # 752f <_ebss+0x752f>
100001e8:	fee7d2e3          	bge	a5,a4,100001cc <main+0x82>
100001ec:	bf55                	j	100001a0 <main+0x56>
	...

Disassembly of section .riscv.attributes:

00000000 <.riscv.attributes>:
   0:	2541                	jal	680 <_ebss+0x680>
   2:	0000                	unimp
   4:	7200                	flw	fs0,32(a2)
   6:	7369                	lui	t1,0xffffa
   8:	01007663          	bgeu	zero,a6,14 <_ebss+0x14>
   c:	0000001b          	0x1b
  10:	1004                	addi	s1,sp,32
  12:	7205                	lui	tp,0xfffe1
  14:	3376                	fld	ft6,376(sp)
  16:	6932                	flw	fs2,12(sp)
  18:	7032                	flw	ft0,44(sp)
  1a:	5f30                	lw	a2,120(a4)
  1c:	326d                	jal	fffff9c6 <_etext+0xeffff7d6>
  1e:	3070                	fld	fa2,224(s0)
  20:	635f 7032 0030      	0x307032635f

Disassembly of section .comment:

00000000 <.comment>:
   0:	3a434347          	fmsub.d	ft6,ft6,ft4,ft7,rmm
   4:	2820                	fld	fs0,80(s0)
   6:	29554e47          	fmsub.s	ft8,fa0,fs5,ft5,rmm
   a:	3920                	fld	fs0,112(a0)
   c:	322e                	fld	ft4,232(sp)
   e:	302e                	fld	ft0,232(sp)
	...
