
freq_test.elf:     file format elf32-littleriscv


Disassembly of section .text:

10000000 <_ftext>:
10000000:	0b00006f          	j	100000b0 <crt_init>
10000004:	00000013          	nop
10000008:	00000013          	nop
1000000c:	00000013          	nop
10000010:	00000013          	nop
10000014:	00000013          	nop
10000018:	00000013          	nop
1000001c:	00000013          	nop

10000020 <trap_entry>:
10000020:	fe112e23          	sw	ra,-4(sp)
10000024:	fe512c23          	sw	t0,-8(sp)
10000028:	fe612a23          	sw	t1,-12(sp)
1000002c:	fe712823          	sw	t2,-16(sp)
10000030:	fea12623          	sw	a0,-20(sp)
10000034:	feb12423          	sw	a1,-24(sp)
10000038:	fec12223          	sw	a2,-28(sp)
1000003c:	fed12023          	sw	a3,-32(sp)
10000040:	fce12e23          	sw	a4,-36(sp)
10000044:	fcf12c23          	sw	a5,-40(sp)
10000048:	fd012a23          	sw	a6,-44(sp)
1000004c:	fd112823          	sw	a7,-48(sp)
10000050:	fdc12623          	sw	t3,-52(sp)
10000054:	fdd12423          	sw	t4,-56(sp)
10000058:	fde12223          	sw	t5,-60(sp)
1000005c:	fdf12023          	sw	t6,-64(sp)
10000060:	fc010113          	addi	sp,sp,-64
10000064:	110000ef          	jal	ra,10000174 <isr>
10000068:	03c12083          	lw	ra,60(sp)
1000006c:	03812283          	lw	t0,56(sp)
10000070:	03412303          	lw	t1,52(sp)
10000074:	03012383          	lw	t2,48(sp)
10000078:	02c12503          	lw	a0,44(sp)
1000007c:	02812583          	lw	a1,40(sp)
10000080:	02412603          	lw	a2,36(sp)
10000084:	02012683          	lw	a3,32(sp)
10000088:	01c12703          	lw	a4,28(sp)
1000008c:	01812783          	lw	a5,24(sp)
10000090:	01412803          	lw	a6,20(sp)
10000094:	01012883          	lw	a7,16(sp)
10000098:	00c12e03          	lw	t3,12(sp)
1000009c:	00812e83          	lw	t4,8(sp)
100000a0:	00412f03          	lw	t5,4(sp)
100000a4:	00012f83          	lw	t6,0(sp)
100000a8:	04010113          	addi	sp,sp,64
100000ac:	30200073          	mret

100000b0 <crt_init>:
100000b0:	40000113          	li	sp,1024
100000b4:	00000517          	auipc	a0,0x0
100000b8:	f6c50513          	addi	a0,a0,-148 # 10000020 <trap_entry>
100000bc:	30551073          	csrw	mtvec,a0

100000c0 <data_init>:
100000c0:	00000513          	li	a0,0
100000c4:	0f800593          	li	a1,248
100000c8:	00002617          	auipc	a2,0x2
100000cc:	83860613          	addi	a2,a2,-1992 # 10001900 <_erodata>

100000d0 <data_loop>:
100000d0:	00b50c63          	beq	a0,a1,100000e8 <bss_init>
100000d4:	00062683          	lw	a3,0(a2)
100000d8:	00d52023          	sw	a3,0(a0)
100000dc:	00450513          	addi	a0,a0,4
100000e0:	00460613          	addi	a2,a2,4
100000e4:	fedff06f          	j	100000d0 <data_loop>

100000e8 <bss_init>:
100000e8:	10000513          	li	a0,256
100000ec:	10800593          	li	a1,264

100000f0 <bss_loop>:
100000f0:	00b50863          	beq	a0,a1,10000100 <bss_done>
100000f4:	00052023          	sw	zero,0(a0)
100000f8:	00450513          	addi	a0,a0,4
100000fc:	ff5ff06f          	j	100000f0 <bss_loop>

10000100 <bss_done>:
10000100:	00001537          	lui	a0,0x1
10000104:	88050513          	addi	a0,a0,-1920 # 880 <_fstack+0x480>
10000108:	30451073          	csrw	mie,a0
1000010c:	5b8010ef          	jal	ra,100016c4 <main>

10000110 <infinit_loop>:
10000110:	0000006f          	j	10000110 <infinit_loop>

10000114 <flush_cpu_icache>:
10000114:	ff010113          	addi	sp,sp,-16
10000118:	00812623          	sw	s0,12(sp)
1000011c:	01010413          	addi	s0,sp,16
10000120:	00000013          	nop
10000124:	00c12403          	lw	s0,12(sp)
10000128:	01010113          	addi	sp,sp,16
1000012c:	00008067          	ret

10000130 <flush_cpu_dcache>:
10000130:	ff010113          	addi	sp,sp,-16
10000134:	00812623          	sw	s0,12(sp)
10000138:	01010413          	addi	s0,sp,16
1000013c:	00000013          	nop
10000140:	00c12403          	lw	s0,12(sp)
10000144:	01010113          	addi	sp,sp,16
10000148:	00008067          	ret

1000014c <irq_setmask>:
1000014c:	fe010113          	addi	sp,sp,-32
10000150:	00812e23          	sw	s0,28(sp)
10000154:	02010413          	addi	s0,sp,32
10000158:	fea42623          	sw	a0,-20(s0)
1000015c:	fec42783          	lw	a5,-20(s0)
10000160:	bc079073          	csrw	0xbc0,a5
10000164:	00000013          	nop
10000168:	01c12403          	lw	s0,28(sp)
1000016c:	02010113          	addi	sp,sp,32
10000170:	00008067          	ret

10000174 <isr>:
10000174:	ff010113          	addi	sp,sp,-16
10000178:	00112623          	sw	ra,12(sp)
1000017c:	00812423          	sw	s0,8(sp)
10000180:	01010413          	addi	s0,sp,16
10000184:	00000513          	li	a0,0
10000188:	fc5ff0ef          	jal	ra,1000014c <irq_setmask>
1000018c:	f00057b7          	lui	a5,0xf0005
10000190:	01c78793          	addi	a5,a5,28 # f000501c <_erodata+0xe000371c>
10000194:	0007a023          	sw	zero,0(a5)
10000198:	f00057b7          	lui	a5,0xf0005
1000019c:	00c78793          	addi	a5,a5,12 # f000500c <_erodata+0xe000370c>
100001a0:	00100713          	li	a4,1
100001a4:	00e7a023          	sw	a4,0(a5)
100001a8:	f00057b7          	lui	a5,0xf0005
100001ac:	01078793          	addi	a5,a5,16 # f0005010 <_erodata+0xe0003710>
100001b0:	0007a783          	lw	a5,0(a5)
100001b4:	00079863          	bnez	a5,100001c4 <isr+0x50>
100001b8:	00100713          	li	a4,1
100001bc:	10e01023          	sh	a4,256(zero) # 100 <flag>
100001c0:	0180006f          	j	100001d8 <isr+0x64>
100001c4:	f00057b7          	lui	a5,0xf0005
100001c8:	01c78793          	addi	a5,a5,28 # f000501c <_erodata+0xe000371c>
100001cc:	00100713          	li	a4,1
100001d0:	00e7a023          	sw	a4,0(a5)
100001d4:	00000013          	nop
100001d8:	00c12083          	lw	ra,12(sp)
100001dc:	00812403          	lw	s0,8(sp)
100001e0:	01010113          	addi	sp,sp,16
100001e4:	00008067          	ret

100001e8 <flush_cpu_icache>:
100001e8:	ff010113          	addi	sp,sp,-16
100001ec:	00812623          	sw	s0,12(sp)
100001f0:	01010413          	addi	s0,sp,16
100001f4:	00000013          	nop
100001f8:	00c12403          	lw	s0,12(sp)
100001fc:	01010113          	addi	sp,sp,16
10000200:	00008067          	ret

10000204 <flush_cpu_dcache>:
10000204:	ff010113          	addi	sp,sp,-16
10000208:	00812623          	sw	s0,12(sp)
1000020c:	01010413          	addi	s0,sp,16
10000210:	00000013          	nop
10000214:	00c12403          	lw	s0,12(sp)
10000218:	01010113          	addi	sp,sp,16
1000021c:	00008067          	ret

10000220 <gpio_program>:
10000220:	f4010113          	addi	sp,sp,-192
10000224:	0a812e23          	sw	s0,188(sp)
10000228:	0c010413          	addi	s0,sp,192
1000022c:	260007b7          	lui	a5,0x26000
10000230:	0b878793          	addi	a5,a5,184 # 260000b8 <_erodata+0x15ffe7b8>
10000234:	0007a783          	lw	a5,0(a5)
10000238:	01079793          	slli	a5,a5,0x10
1000023c:	4107d793          	srai	a5,a5,0x10
10000240:	fef41123          	sh	a5,-30(s0)
10000244:	260007b7          	lui	a5,0x26000
10000248:	0b478793          	addi	a5,a5,180 # 260000b4 <_erodata+0x15ffe7b4>
1000024c:	0007a783          	lw	a5,0(a5)
10000250:	01079793          	slli	a5,a5,0x10
10000254:	4107d793          	srai	a5,a5,0x10
10000258:	fef41023          	sh	a5,-32(s0)
1000025c:	260007b7          	lui	a5,0x26000
10000260:	0b078793          	addi	a5,a5,176 # 260000b0 <_erodata+0x15ffe7b0>
10000264:	0007a783          	lw	a5,0(a5)
10000268:	01079793          	slli	a5,a5,0x10
1000026c:	4107d793          	srai	a5,a5,0x10
10000270:	fcf41f23          	sh	a5,-34(s0)
10000274:	260007b7          	lui	a5,0x26000
10000278:	0ac78793          	addi	a5,a5,172 # 260000ac <_erodata+0x15ffe7ac>
1000027c:	0007a783          	lw	a5,0(a5)
10000280:	01079793          	slli	a5,a5,0x10
10000284:	4107d793          	srai	a5,a5,0x10
10000288:	fcf41e23          	sh	a5,-36(s0)
1000028c:	260007b7          	lui	a5,0x26000
10000290:	0a878793          	addi	a5,a5,168 # 260000a8 <_erodata+0x15ffe7a8>
10000294:	0007a783          	lw	a5,0(a5)
10000298:	01079793          	slli	a5,a5,0x10
1000029c:	4107d793          	srai	a5,a5,0x10
100002a0:	fcf41d23          	sh	a5,-38(s0)
100002a4:	260007b7          	lui	a5,0x26000
100002a8:	0a478793          	addi	a5,a5,164 # 260000a4 <_erodata+0x15ffe7a4>
100002ac:	0007a783          	lw	a5,0(a5)
100002b0:	01079793          	slli	a5,a5,0x10
100002b4:	4107d793          	srai	a5,a5,0x10
100002b8:	fcf41c23          	sh	a5,-40(s0)
100002bc:	260007b7          	lui	a5,0x26000
100002c0:	0a078793          	addi	a5,a5,160 # 260000a0 <_erodata+0x15ffe7a0>
100002c4:	0007a783          	lw	a5,0(a5)
100002c8:	01079793          	slli	a5,a5,0x10
100002cc:	4107d793          	srai	a5,a5,0x10
100002d0:	fcf41b23          	sh	a5,-42(s0)
100002d4:	260007b7          	lui	a5,0x26000
100002d8:	09c78793          	addi	a5,a5,156 # 2600009c <_erodata+0x15ffe79c>
100002dc:	0007a783          	lw	a5,0(a5)
100002e0:	01079793          	slli	a5,a5,0x10
100002e4:	4107d793          	srai	a5,a5,0x10
100002e8:	fcf41a23          	sh	a5,-44(s0)
100002ec:	260007b7          	lui	a5,0x26000
100002f0:	09878793          	addi	a5,a5,152 # 26000098 <_erodata+0x15ffe798>
100002f4:	0007a783          	lw	a5,0(a5)
100002f8:	01079793          	slli	a5,a5,0x10
100002fc:	4107d793          	srai	a5,a5,0x10
10000300:	fcf41923          	sh	a5,-46(s0)
10000304:	260007b7          	lui	a5,0x26000
10000308:	09478793          	addi	a5,a5,148 # 26000094 <_erodata+0x15ffe794>
1000030c:	0007a783          	lw	a5,0(a5)
10000310:	01079793          	slli	a5,a5,0x10
10000314:	4107d793          	srai	a5,a5,0x10
10000318:	fcf41823          	sh	a5,-48(s0)
1000031c:	260007b7          	lui	a5,0x26000
10000320:	09078793          	addi	a5,a5,144 # 26000090 <_erodata+0x15ffe790>
10000324:	0007a783          	lw	a5,0(a5)
10000328:	01079793          	slli	a5,a5,0x10
1000032c:	4107d793          	srai	a5,a5,0x10
10000330:	fcf41723          	sh	a5,-50(s0)
10000334:	260007b7          	lui	a5,0x26000
10000338:	08c78793          	addi	a5,a5,140 # 2600008c <_erodata+0x15ffe78c>
1000033c:	0007a783          	lw	a5,0(a5)
10000340:	01079793          	slli	a5,a5,0x10
10000344:	4107d793          	srai	a5,a5,0x10
10000348:	fcf41623          	sh	a5,-52(s0)
1000034c:	260007b7          	lui	a5,0x26000
10000350:	08878793          	addi	a5,a5,136 # 26000088 <_erodata+0x15ffe788>
10000354:	0007a783          	lw	a5,0(a5)
10000358:	01079793          	slli	a5,a5,0x10
1000035c:	4107d793          	srai	a5,a5,0x10
10000360:	fcf41523          	sh	a5,-54(s0)
10000364:	260007b7          	lui	a5,0x26000
10000368:	08478793          	addi	a5,a5,132 # 26000084 <_erodata+0x15ffe784>
1000036c:	0007a783          	lw	a5,0(a5)
10000370:	01079793          	slli	a5,a5,0x10
10000374:	4107d793          	srai	a5,a5,0x10
10000378:	fcf41423          	sh	a5,-56(s0)
1000037c:	260007b7          	lui	a5,0x26000
10000380:	08078793          	addi	a5,a5,128 # 26000080 <_erodata+0x15ffe780>
10000384:	0007a783          	lw	a5,0(a5)
10000388:	01079793          	slli	a5,a5,0x10
1000038c:	4107d793          	srai	a5,a5,0x10
10000390:	fcf41323          	sh	a5,-58(s0)
10000394:	260007b7          	lui	a5,0x26000
10000398:	07c78793          	addi	a5,a5,124 # 2600007c <_erodata+0x15ffe77c>
1000039c:	0007a783          	lw	a5,0(a5)
100003a0:	01079793          	slli	a5,a5,0x10
100003a4:	4107d793          	srai	a5,a5,0x10
100003a8:	fcf41223          	sh	a5,-60(s0)
100003ac:	260007b7          	lui	a5,0x26000
100003b0:	07878793          	addi	a5,a5,120 # 26000078 <_erodata+0x15ffe778>
100003b4:	0007a783          	lw	a5,0(a5)
100003b8:	01079793          	slli	a5,a5,0x10
100003bc:	4107d793          	srai	a5,a5,0x10
100003c0:	fcf41123          	sh	a5,-62(s0)
100003c4:	260007b7          	lui	a5,0x26000
100003c8:	07478793          	addi	a5,a5,116 # 26000074 <_erodata+0x15ffe774>
100003cc:	0007a783          	lw	a5,0(a5)
100003d0:	01079793          	slli	a5,a5,0x10
100003d4:	4107d793          	srai	a5,a5,0x10
100003d8:	fcf41023          	sh	a5,-64(s0)
100003dc:	260007b7          	lui	a5,0x26000
100003e0:	07078793          	addi	a5,a5,112 # 26000070 <_erodata+0x15ffe770>
100003e4:	0007a783          	lw	a5,0(a5)
100003e8:	01079793          	slli	a5,a5,0x10
100003ec:	4107d793          	srai	a5,a5,0x10
100003f0:	faf41f23          	sh	a5,-66(s0)
100003f4:	260007b7          	lui	a5,0x26000
100003f8:	06c78793          	addi	a5,a5,108 # 2600006c <_erodata+0x15ffe76c>
100003fc:	0007a783          	lw	a5,0(a5)
10000400:	01079793          	slli	a5,a5,0x10
10000404:	4107d793          	srai	a5,a5,0x10
10000408:	faf41e23          	sh	a5,-68(s0)
1000040c:	260007b7          	lui	a5,0x26000
10000410:	06878793          	addi	a5,a5,104 # 26000068 <_erodata+0x15ffe768>
10000414:	0007a783          	lw	a5,0(a5)
10000418:	01079793          	slli	a5,a5,0x10
1000041c:	4107d793          	srai	a5,a5,0x10
10000420:	faf41d23          	sh	a5,-70(s0)
10000424:	260007b7          	lui	a5,0x26000
10000428:	06478793          	addi	a5,a5,100 # 26000064 <_erodata+0x15ffe764>
1000042c:	0007a783          	lw	a5,0(a5)
10000430:	01079793          	slli	a5,a5,0x10
10000434:	4107d793          	srai	a5,a5,0x10
10000438:	faf41c23          	sh	a5,-72(s0)
1000043c:	260007b7          	lui	a5,0x26000
10000440:	06078793          	addi	a5,a5,96 # 26000060 <_erodata+0x15ffe760>
10000444:	0007a783          	lw	a5,0(a5)
10000448:	01079793          	slli	a5,a5,0x10
1000044c:	4107d793          	srai	a5,a5,0x10
10000450:	faf41b23          	sh	a5,-74(s0)
10000454:	260007b7          	lui	a5,0x26000
10000458:	05c78793          	addi	a5,a5,92 # 2600005c <_erodata+0x15ffe75c>
1000045c:	0007a783          	lw	a5,0(a5)
10000460:	01079793          	slli	a5,a5,0x10
10000464:	4107d793          	srai	a5,a5,0x10
10000468:	faf41a23          	sh	a5,-76(s0)
1000046c:	260007b7          	lui	a5,0x26000
10000470:	05878793          	addi	a5,a5,88 # 26000058 <_erodata+0x15ffe758>
10000474:	0007a783          	lw	a5,0(a5)
10000478:	01079793          	slli	a5,a5,0x10
1000047c:	4107d793          	srai	a5,a5,0x10
10000480:	faf41923          	sh	a5,-78(s0)
10000484:	260007b7          	lui	a5,0x26000
10000488:	05478793          	addi	a5,a5,84 # 26000054 <_erodata+0x15ffe754>
1000048c:	0007a783          	lw	a5,0(a5)
10000490:	01079793          	slli	a5,a5,0x10
10000494:	4107d793          	srai	a5,a5,0x10
10000498:	faf41823          	sh	a5,-80(s0)
1000049c:	260007b7          	lui	a5,0x26000
100004a0:	05078793          	addi	a5,a5,80 # 26000050 <_erodata+0x15ffe750>
100004a4:	0007a783          	lw	a5,0(a5)
100004a8:	01079793          	slli	a5,a5,0x10
100004ac:	4107d793          	srai	a5,a5,0x10
100004b0:	faf41723          	sh	a5,-82(s0)
100004b4:	260007b7          	lui	a5,0x26000
100004b8:	04c78793          	addi	a5,a5,76 # 2600004c <_erodata+0x15ffe74c>
100004bc:	0007a783          	lw	a5,0(a5)
100004c0:	01079793          	slli	a5,a5,0x10
100004c4:	4107d793          	srai	a5,a5,0x10
100004c8:	faf41623          	sh	a5,-84(s0)
100004cc:	260007b7          	lui	a5,0x26000
100004d0:	04878793          	addi	a5,a5,72 # 26000048 <_erodata+0x15ffe748>
100004d4:	0007a783          	lw	a5,0(a5)
100004d8:	01079793          	slli	a5,a5,0x10
100004dc:	4107d793          	srai	a5,a5,0x10
100004e0:	faf41523          	sh	a5,-86(s0)
100004e4:	260007b7          	lui	a5,0x26000
100004e8:	04478793          	addi	a5,a5,68 # 26000044 <_erodata+0x15ffe744>
100004ec:	0007a783          	lw	a5,0(a5)
100004f0:	01079793          	slli	a5,a5,0x10
100004f4:	4107d793          	srai	a5,a5,0x10
100004f8:	faf41423          	sh	a5,-88(s0)
100004fc:	260007b7          	lui	a5,0x26000
10000500:	04078793          	addi	a5,a5,64 # 26000040 <_erodata+0x15ffe740>
10000504:	0007a783          	lw	a5,0(a5)
10000508:	01079793          	slli	a5,a5,0x10
1000050c:	4107d793          	srai	a5,a5,0x10
10000510:	faf41323          	sh	a5,-90(s0)
10000514:	260007b7          	lui	a5,0x26000
10000518:	03c78793          	addi	a5,a5,60 # 2600003c <_erodata+0x15ffe73c>
1000051c:	0007a783          	lw	a5,0(a5)
10000520:	01079793          	slli	a5,a5,0x10
10000524:	4107d793          	srai	a5,a5,0x10
10000528:	faf41223          	sh	a5,-92(s0)
1000052c:	260007b7          	lui	a5,0x26000
10000530:	03878793          	addi	a5,a5,56 # 26000038 <_erodata+0x15ffe738>
10000534:	0007a783          	lw	a5,0(a5)
10000538:	01079793          	slli	a5,a5,0x10
1000053c:	4107d793          	srai	a5,a5,0x10
10000540:	faf41123          	sh	a5,-94(s0)
10000544:	260007b7          	lui	a5,0x26000
10000548:	03478793          	addi	a5,a5,52 # 26000034 <_erodata+0x15ffe734>
1000054c:	0007a783          	lw	a5,0(a5)
10000550:	01079793          	slli	a5,a5,0x10
10000554:	4107d793          	srai	a5,a5,0x10
10000558:	faf41023          	sh	a5,-96(s0)
1000055c:	260007b7          	lui	a5,0x26000
10000560:	03078793          	addi	a5,a5,48 # 26000030 <_erodata+0x15ffe730>
10000564:	0007a783          	lw	a5,0(a5)
10000568:	01079793          	slli	a5,a5,0x10
1000056c:	4107d793          	srai	a5,a5,0x10
10000570:	f8f41f23          	sh	a5,-98(s0)
10000574:	260007b7          	lui	a5,0x26000
10000578:	02c78793          	addi	a5,a5,44 # 2600002c <_erodata+0x15ffe72c>
1000057c:	0007a783          	lw	a5,0(a5)
10000580:	01079793          	slli	a5,a5,0x10
10000584:	4107d793          	srai	a5,a5,0x10
10000588:	f8f41e23          	sh	a5,-100(s0)
1000058c:	260007b7          	lui	a5,0x26000
10000590:	02878793          	addi	a5,a5,40 # 26000028 <_erodata+0x15ffe728>
10000594:	0007a783          	lw	a5,0(a5)
10000598:	01079793          	slli	a5,a5,0x10
1000059c:	4107d793          	srai	a5,a5,0x10
100005a0:	f8f41d23          	sh	a5,-102(s0)
100005a4:	260007b7          	lui	a5,0x26000
100005a8:	02478793          	addi	a5,a5,36 # 26000024 <_erodata+0x15ffe724>
100005ac:	0007a783          	lw	a5,0(a5)
100005b0:	01079793          	slli	a5,a5,0x10
100005b4:	4107d793          	srai	a5,a5,0x10
100005b8:	f8f41c23          	sh	a5,-104(s0)
100005bc:	f6041923          	sh	zero,-142(s0)
100005c0:	01400793          	li	a5,20
100005c4:	fef42623          	sw	a5,-20(s0)
100005c8:	0d00006f          	j	10000698 <gpio_program+0x478>
100005cc:	fec42783          	lw	a5,-20(s0)
100005d0:	fff78793          	addi	a5,a5,-1
100005d4:	00179793          	slli	a5,a5,0x1
100005d8:	ff078793          	addi	a5,a5,-16
100005dc:	008787b3          	add	a5,a5,s0
100005e0:	fa879783          	lh	a5,-88(a5)
100005e4:	00078693          	mv	a3,a5
100005e8:	01900713          	li	a4,25
100005ec:	fec42783          	lw	a5,-20(s0)
100005f0:	40f707b3          	sub	a5,a4,a5
100005f4:	40f6d7b3          	sra	a5,a3,a5
100005f8:	01079713          	slli	a4,a5,0x10
100005fc:	41075713          	srai	a4,a4,0x10
10000600:	fec42783          	lw	a5,-20(s0)
10000604:	ffe78793          	addi	a5,a5,-2
10000608:	00179793          	slli	a5,a5,0x1
1000060c:	ff078793          	addi	a5,a5,-16
10000610:	008787b3          	add	a5,a5,s0
10000614:	fa879783          	lh	a5,-88(a5)
10000618:	00078693          	mv	a3,a5
1000061c:	fec42783          	lw	a5,-20(s0)
10000620:	ff378793          	addi	a5,a5,-13
10000624:	00f697b3          	sll	a5,a3,a5
10000628:	01079793          	slli	a5,a5,0x10
1000062c:	4107d793          	srai	a5,a5,0x10
10000630:	00f767b3          	or	a5,a4,a5
10000634:	01079713          	slli	a4,a5,0x10
10000638:	41075713          	srai	a4,a4,0x10
1000063c:	fec42783          	lw	a5,-20(s0)
10000640:	00179793          	slli	a5,a5,0x1
10000644:	ff078793          	addi	a5,a5,-16
10000648:	008787b3          	add	a5,a5,s0
1000064c:	f4e79e23          	sh	a4,-164(a5)
10000650:	fec42783          	lw	a5,-20(s0)
10000654:	00179793          	slli	a5,a5,0x1
10000658:	ff078793          	addi	a5,a5,-16
1000065c:	008787b3          	add	a5,a5,s0
10000660:	f5c79703          	lh	a4,-164(a5)
10000664:	000027b7          	lui	a5,0x2
10000668:	fff78793          	addi	a5,a5,-1 # 1fff <_fstack+0x1bff>
1000066c:	00f777b3          	and	a5,a4,a5
10000670:	01079713          	slli	a4,a5,0x10
10000674:	41075713          	srai	a4,a4,0x10
10000678:	fec42783          	lw	a5,-20(s0)
1000067c:	00179793          	slli	a5,a5,0x1
10000680:	ff078793          	addi	a5,a5,-16
10000684:	008787b3          	add	a5,a5,s0
10000688:	f4e79e23          	sh	a4,-164(a5)
1000068c:	fec42783          	lw	a5,-20(s0)
10000690:	00178793          	addi	a5,a5,1
10000694:	fef42623          	sw	a5,-20(s0)
10000698:	fec42703          	lw	a4,-20(s0)
1000069c:	01800793          	li	a5,24
100006a0:	f2e7d6e3          	bge	a5,a4,100005cc <gpio_program+0x3ac>
100006a4:	01900793          	li	a5,25
100006a8:	fef42623          	sw	a5,-20(s0)
100006ac:	0cc0006f          	j	10000778 <gpio_program+0x558>
100006b0:	fec42783          	lw	a5,-20(s0)
100006b4:	00179793          	slli	a5,a5,0x1
100006b8:	ff078793          	addi	a5,a5,-16
100006bc:	008787b3          	add	a5,a5,s0
100006c0:	fa879783          	lh	a5,-88(a5)
100006c4:	00078693          	mv	a3,a5
100006c8:	02500713          	li	a4,37
100006cc:	fec42783          	lw	a5,-20(s0)
100006d0:	40f707b3          	sub	a5,a4,a5
100006d4:	40f6d7b3          	sra	a5,a3,a5
100006d8:	01079713          	slli	a4,a5,0x10
100006dc:	41075713          	srai	a4,a4,0x10
100006e0:	fec42783          	lw	a5,-20(s0)
100006e4:	fff78793          	addi	a5,a5,-1
100006e8:	00179793          	slli	a5,a5,0x1
100006ec:	ff078793          	addi	a5,a5,-16
100006f0:	008787b3          	add	a5,a5,s0
100006f4:	fa879783          	lh	a5,-88(a5)
100006f8:	00078693          	mv	a3,a5
100006fc:	fec42783          	lw	a5,-20(s0)
10000700:	fe778793          	addi	a5,a5,-25
10000704:	00f697b3          	sll	a5,a3,a5
10000708:	01079793          	slli	a5,a5,0x10
1000070c:	4107d793          	srai	a5,a5,0x10
10000710:	00f767b3          	or	a5,a4,a5
10000714:	01079713          	slli	a4,a5,0x10
10000718:	41075713          	srai	a4,a4,0x10
1000071c:	fec42783          	lw	a5,-20(s0)
10000720:	00179793          	slli	a5,a5,0x1
10000724:	ff078793          	addi	a5,a5,-16
10000728:	008787b3          	add	a5,a5,s0
1000072c:	f4e79e23          	sh	a4,-164(a5)
10000730:	fec42783          	lw	a5,-20(s0)
10000734:	00179793          	slli	a5,a5,0x1
10000738:	ff078793          	addi	a5,a5,-16
1000073c:	008787b3          	add	a5,a5,s0
10000740:	f5c79703          	lh	a4,-164(a5)
10000744:	000027b7          	lui	a5,0x2
10000748:	fff78793          	addi	a5,a5,-1 # 1fff <_fstack+0x1bff>
1000074c:	00f777b3          	and	a5,a4,a5
10000750:	01079713          	slli	a4,a5,0x10
10000754:	41075713          	srai	a4,a4,0x10
10000758:	fec42783          	lw	a5,-20(s0)
1000075c:	00179793          	slli	a5,a5,0x1
10000760:	ff078793          	addi	a5,a5,-16
10000764:	008787b3          	add	a5,a5,s0
10000768:	f4e79e23          	sh	a4,-164(a5)
1000076c:	fec42783          	lw	a5,-20(s0)
10000770:	00178793          	addi	a5,a5,1
10000774:	fef42623          	sw	a5,-20(s0)
10000778:	fec42703          	lw	a4,-20(s0)
1000077c:	02400793          	li	a5,36
10000780:	f2e7d8e3          	bge	a5,a4,100006b0 <gpio_program+0x490>
10000784:	fe241783          	lh	a5,-30(s0)
10000788:	f8f41b23          	sh	a5,-106(s0)
1000078c:	fe042623          	sw	zero,-20(s0)
10000790:	0380006f          	j	100007c8 <gpio_program+0x5a8>
10000794:	fec42783          	lw	a5,-20(s0)
10000798:	00179793          	slli	a5,a5,0x1
1000079c:	ff078793          	addi	a5,a5,-16
100007a0:	008787b3          	add	a5,a5,s0
100007a4:	fa879703          	lh	a4,-88(a5)
100007a8:	fec42783          	lw	a5,-20(s0)
100007ac:	00179793          	slli	a5,a5,0x1
100007b0:	ff078793          	addi	a5,a5,-16
100007b4:	008787b3          	add	a5,a5,s0
100007b8:	f4e79e23          	sh	a4,-164(a5)
100007bc:	fec42783          	lw	a5,-20(s0)
100007c0:	00178793          	addi	a5,a5,1
100007c4:	fef42623          	sw	a5,-20(s0)
100007c8:	fec42703          	lw	a4,-20(s0)
100007cc:	01200793          	li	a5,18
100007d0:	fce7d2e3          	bge	a5,a4,10000794 <gpio_program+0x574>
100007d4:	fe042423          	sw	zero,-24(s0)
100007d8:	00200793          	li	a5,2
100007dc:	fef42623          	sw	a5,-20(s0)
100007e0:	0b40006f          	j	10000894 <gpio_program+0x674>
100007e4:	fec42703          	lw	a4,-20(s0)
100007e8:	00800793          	li	a5,8
100007ec:	00e7de63          	bge	a5,a4,10000808 <gpio_program+0x5e8>
100007f0:	fec42703          	lw	a4,-20(s0)
100007f4:	00a00793          	li	a5,10
100007f8:	00f70863          	beq	a4,a5,10000808 <gpio_program+0x5e8>
100007fc:	fec42703          	lw	a4,-20(s0)
10000800:	00b00793          	li	a5,11
10000804:	00f71863          	bne	a4,a5,10000814 <gpio_program+0x5f4>
10000808:	fe842783          	lw	a5,-24(s0)
1000080c:	00178793          	addi	a5,a5,1
10000810:	fef42423          	sw	a5,-24(s0)
10000814:	fe042223          	sw	zero,-28(s0)
10000818:	0640006f          	j	1000087c <gpio_program+0x65c>
1000081c:	fec42783          	lw	a5,-20(s0)
10000820:	00179793          	slli	a5,a5,0x1
10000824:	ff078793          	addi	a5,a5,-16
10000828:	008787b3          	add	a5,a5,s0
1000082c:	f5c79703          	lh	a4,-164(a5)
10000830:	fec42783          	lw	a5,-20(s0)
10000834:	00179793          	slli	a5,a5,0x1
10000838:	ff078793          	addi	a5,a5,-16
1000083c:	008787b3          	add	a5,a5,s0
10000840:	f5c79783          	lh	a5,-164(a5)
10000844:	4017d793          	srai	a5,a5,0x1
10000848:	01079793          	slli	a5,a5,0x10
1000084c:	4107d793          	srai	a5,a5,0x10
10000850:	00f767b3          	or	a5,a4,a5
10000854:	01079713          	slli	a4,a5,0x10
10000858:	41075713          	srai	a4,a4,0x10
1000085c:	fec42783          	lw	a5,-20(s0)
10000860:	00179793          	slli	a5,a5,0x1
10000864:	ff078793          	addi	a5,a5,-16
10000868:	008787b3          	add	a5,a5,s0
1000086c:	f4e79e23          	sh	a4,-164(a5)
10000870:	fe442783          	lw	a5,-28(s0)
10000874:	00178793          	addi	a5,a5,1
10000878:	fef42223          	sw	a5,-28(s0)
1000087c:	fe442703          	lw	a4,-28(s0)
10000880:	fe842783          	lw	a5,-24(s0)
10000884:	f8f74ce3          	blt	a4,a5,1000081c <gpio_program+0x5fc>
10000888:	fec42783          	lw	a5,-20(s0)
1000088c:	00178793          	addi	a5,a5,1
10000890:	fef42623          	sw	a5,-20(s0)
10000894:	fec42703          	lw	a4,-20(s0)
10000898:	01200793          	li	a5,18
1000089c:	f4e7d4e3          	bge	a5,a4,100007e4 <gpio_program+0x5c4>
100008a0:	00100793          	li	a5,1
100008a4:	fef42623          	sw	a5,-20(s0)
100008a8:	0880006f          	j	10000930 <gpio_program+0x710>
100008ac:	fec42783          	lw	a5,-20(s0)
100008b0:	00179793          	slli	a5,a5,0x1
100008b4:	ff078793          	addi	a5,a5,-16
100008b8:	008787b3          	add	a5,a5,s0
100008bc:	f5c79783          	lh	a5,-164(a5)
100008c0:	4017d793          	srai	a5,a5,0x1
100008c4:	01079713          	slli	a4,a5,0x10
100008c8:	41075713          	srai	a4,a4,0x10
100008cc:	fec42783          	lw	a5,-20(s0)
100008d0:	00178793          	addi	a5,a5,1
100008d4:	00179793          	slli	a5,a5,0x1
100008d8:	ff078793          	addi	a5,a5,-16
100008dc:	008787b3          	add	a5,a5,s0
100008e0:	f5c79783          	lh	a5,-164(a5)
100008e4:	00c79793          	slli	a5,a5,0xc
100008e8:	01079793          	slli	a5,a5,0x10
100008ec:	4107d793          	srai	a5,a5,0x10
100008f0:	00f767b3          	or	a5,a4,a5
100008f4:	01079713          	slli	a4,a5,0x10
100008f8:	41075713          	srai	a4,a4,0x10
100008fc:	000027b7          	lui	a5,0x2
10000900:	fff78793          	addi	a5,a5,-1 # 1fff <_fstack+0x1bff>
10000904:	00f777b3          	and	a5,a4,a5
10000908:	01079713          	slli	a4,a5,0x10
1000090c:	41075713          	srai	a4,a4,0x10
10000910:	fec42783          	lw	a5,-20(s0)
10000914:	00179793          	slli	a5,a5,0x1
10000918:	ff078793          	addi	a5,a5,-16
1000091c:	008787b3          	add	a5,a5,s0
10000920:	f4e79e23          	sh	a4,-164(a5)
10000924:	fec42783          	lw	a5,-20(s0)
10000928:	00178793          	addi	a5,a5,1
1000092c:	fef42623          	sw	a5,-20(s0)
10000930:	fec42703          	lw	a4,-20(s0)
10000934:	00800793          	li	a5,8
10000938:	f6e7dae3          	bge	a5,a4,100008ac <gpio_program+0x68c>
1000093c:	f5e41783          	lh	a5,-162(s0)
10000940:	4027d793          	srai	a5,a5,0x2
10000944:	01079713          	slli	a4,a5,0x10
10000948:	41075713          	srai	a4,a4,0x10
1000094c:	f6041783          	lh	a5,-160(s0)
10000950:	00b79793          	slli	a5,a5,0xb
10000954:	01079793          	slli	a5,a5,0x10
10000958:	4107d793          	srai	a5,a5,0x10
1000095c:	00f767b3          	or	a5,a4,a5
10000960:	01079713          	slli	a4,a5,0x10
10000964:	41075713          	srai	a4,a4,0x10
10000968:	000027b7          	lui	a5,0x2
1000096c:	fff78793          	addi	a5,a5,-1 # 1fff <_fstack+0x1bff>
10000970:	00f777b3          	and	a5,a4,a5
10000974:	01079793          	slli	a5,a5,0x10
10000978:	4107d793          	srai	a5,a5,0x10
1000097c:	f4f41f23          	sh	a5,-162(s0)
10000980:	00a00793          	li	a5,10
10000984:	fef42623          	sw	a5,-20(s0)
10000988:	0cc0006f          	j	10000a54 <gpio_program+0x834>
1000098c:	fec42783          	lw	a5,-20(s0)
10000990:	00179793          	slli	a5,a5,0x1
10000994:	ff078793          	addi	a5,a5,-16
10000998:	008787b3          	add	a5,a5,s0
1000099c:	f5c79783          	lh	a5,-164(a5)
100009a0:	00078713          	mv	a4,a5
100009a4:	fec42783          	lw	a5,-20(s0)
100009a8:	ff878793          	addi	a5,a5,-8
100009ac:	40f757b3          	sra	a5,a4,a5
100009b0:	01079713          	slli	a4,a5,0x10
100009b4:	41075713          	srai	a4,a4,0x10
100009b8:	fec42783          	lw	a5,-20(s0)
100009bc:	00178793          	addi	a5,a5,1
100009c0:	00179793          	slli	a5,a5,0x1
100009c4:	ff078793          	addi	a5,a5,-16
100009c8:	008787b3          	add	a5,a5,s0
100009cc:	f5c79783          	lh	a5,-164(a5)
100009d0:	00078613          	mv	a2,a5
100009d4:	01500693          	li	a3,21
100009d8:	fec42783          	lw	a5,-20(s0)
100009dc:	40f687b3          	sub	a5,a3,a5
100009e0:	00f617b3          	sll	a5,a2,a5
100009e4:	01079793          	slli	a5,a5,0x10
100009e8:	4107d793          	srai	a5,a5,0x10
100009ec:	00f767b3          	or	a5,a4,a5
100009f0:	01079713          	slli	a4,a5,0x10
100009f4:	41075713          	srai	a4,a4,0x10
100009f8:	fec42783          	lw	a5,-20(s0)
100009fc:	00179793          	slli	a5,a5,0x1
10000a00:	ff078793          	addi	a5,a5,-16
10000a04:	008787b3          	add	a5,a5,s0
10000a08:	f4e79e23          	sh	a4,-164(a5)
10000a0c:	fec42783          	lw	a5,-20(s0)
10000a10:	00179793          	slli	a5,a5,0x1
10000a14:	ff078793          	addi	a5,a5,-16
10000a18:	008787b3          	add	a5,a5,s0
10000a1c:	f5c79703          	lh	a4,-164(a5)
10000a20:	000027b7          	lui	a5,0x2
10000a24:	fff78793          	addi	a5,a5,-1 # 1fff <_fstack+0x1bff>
10000a28:	00f777b3          	and	a5,a4,a5
10000a2c:	01079713          	slli	a4,a5,0x10
10000a30:	41075713          	srai	a4,a4,0x10
10000a34:	fec42783          	lw	a5,-20(s0)
10000a38:	00179793          	slli	a5,a5,0x1
10000a3c:	ff078793          	addi	a5,a5,-16
10000a40:	008787b3          	add	a5,a5,s0
10000a44:	f4e79e23          	sh	a4,-164(a5)
10000a48:	fec42783          	lw	a5,-20(s0)
10000a4c:	00178793          	addi	a5,a5,1
10000a50:	fef42623          	sw	a5,-20(s0)
10000a54:	fec42703          	lw	a4,-20(s0)
10000a58:	01200793          	li	a5,18
10000a5c:	f2e7d8e3          	bge	a5,a4,1000098c <gpio_program+0x76c>
10000a60:	f9641703          	lh	a4,-106(s0)
10000a64:	260007b7          	lui	a5,0x26000
10000a68:	0b878793          	addi	a5,a5,184 # 260000b8 <_erodata+0x15ffe7b8>
10000a6c:	00e7a023          	sw	a4,0(a5)
10000a70:	f9441703          	lh	a4,-108(s0)
10000a74:	260007b7          	lui	a5,0x26000
10000a78:	0b478793          	addi	a5,a5,180 # 260000b4 <_erodata+0x15ffe7b4>
10000a7c:	00e7a023          	sw	a4,0(a5)
10000a80:	f9241703          	lh	a4,-110(s0)
10000a84:	260007b7          	lui	a5,0x26000
10000a88:	0b078793          	addi	a5,a5,176 # 260000b0 <_erodata+0x15ffe7b0>
10000a8c:	00e7a023          	sw	a4,0(a5)
10000a90:	f9041703          	lh	a4,-112(s0)
10000a94:	260007b7          	lui	a5,0x26000
10000a98:	0ac78793          	addi	a5,a5,172 # 260000ac <_erodata+0x15ffe7ac>
10000a9c:	00e7a023          	sw	a4,0(a5)
10000aa0:	f8e41703          	lh	a4,-114(s0)
10000aa4:	260007b7          	lui	a5,0x26000
10000aa8:	0a878793          	addi	a5,a5,168 # 260000a8 <_erodata+0x15ffe7a8>
10000aac:	00e7a023          	sw	a4,0(a5)
10000ab0:	f8c41703          	lh	a4,-116(s0)
10000ab4:	260007b7          	lui	a5,0x26000
10000ab8:	0a478793          	addi	a5,a5,164 # 260000a4 <_erodata+0x15ffe7a4>
10000abc:	00e7a023          	sw	a4,0(a5)
10000ac0:	f8a41703          	lh	a4,-118(s0)
10000ac4:	260007b7          	lui	a5,0x26000
10000ac8:	0a078793          	addi	a5,a5,160 # 260000a0 <_erodata+0x15ffe7a0>
10000acc:	00e7a023          	sw	a4,0(a5)
10000ad0:	f8841703          	lh	a4,-120(s0)
10000ad4:	260007b7          	lui	a5,0x26000
10000ad8:	09c78793          	addi	a5,a5,156 # 2600009c <_erodata+0x15ffe79c>
10000adc:	00e7a023          	sw	a4,0(a5)
10000ae0:	f8641703          	lh	a4,-122(s0)
10000ae4:	260007b7          	lui	a5,0x26000
10000ae8:	09878793          	addi	a5,a5,152 # 26000098 <_erodata+0x15ffe798>
10000aec:	00e7a023          	sw	a4,0(a5)
10000af0:	f8441703          	lh	a4,-124(s0)
10000af4:	260007b7          	lui	a5,0x26000
10000af8:	09478793          	addi	a5,a5,148 # 26000094 <_erodata+0x15ffe794>
10000afc:	00e7a023          	sw	a4,0(a5)
10000b00:	f8241703          	lh	a4,-126(s0)
10000b04:	260007b7          	lui	a5,0x26000
10000b08:	09078793          	addi	a5,a5,144 # 26000090 <_erodata+0x15ffe790>
10000b0c:	00e7a023          	sw	a4,0(a5)
10000b10:	f8041703          	lh	a4,-128(s0)
10000b14:	260007b7          	lui	a5,0x26000
10000b18:	08c78793          	addi	a5,a5,140 # 2600008c <_erodata+0x15ffe78c>
10000b1c:	00e7a023          	sw	a4,0(a5)
10000b20:	f7e41703          	lh	a4,-130(s0)
10000b24:	260007b7          	lui	a5,0x26000
10000b28:	08878793          	addi	a5,a5,136 # 26000088 <_erodata+0x15ffe788>
10000b2c:	00e7a023          	sw	a4,0(a5)
10000b30:	f7c41703          	lh	a4,-132(s0)
10000b34:	260007b7          	lui	a5,0x26000
10000b38:	08478793          	addi	a5,a5,132 # 26000084 <_erodata+0x15ffe784>
10000b3c:	00e7a023          	sw	a4,0(a5)
10000b40:	f7a41703          	lh	a4,-134(s0)
10000b44:	260007b7          	lui	a5,0x26000
10000b48:	08078793          	addi	a5,a5,128 # 26000080 <_erodata+0x15ffe780>
10000b4c:	00e7a023          	sw	a4,0(a5)
10000b50:	f7841703          	lh	a4,-136(s0)
10000b54:	260007b7          	lui	a5,0x26000
10000b58:	07c78793          	addi	a5,a5,124 # 2600007c <_erodata+0x15ffe77c>
10000b5c:	00e7a023          	sw	a4,0(a5)
10000b60:	f7641703          	lh	a4,-138(s0)
10000b64:	260007b7          	lui	a5,0x26000
10000b68:	07878793          	addi	a5,a5,120 # 26000078 <_erodata+0x15ffe778>
10000b6c:	00e7a023          	sw	a4,0(a5)
10000b70:	f7441703          	lh	a4,-140(s0)
10000b74:	260007b7          	lui	a5,0x26000
10000b78:	07478793          	addi	a5,a5,116 # 26000074 <_erodata+0x15ffe774>
10000b7c:	00e7a023          	sw	a4,0(a5)
10000b80:	f7241703          	lh	a4,-142(s0)
10000b84:	260007b7          	lui	a5,0x26000
10000b88:	07078793          	addi	a5,a5,112 # 26000070 <_erodata+0x15ffe770>
10000b8c:	00e7a023          	sw	a4,0(a5)
10000b90:	f7041703          	lh	a4,-144(s0)
10000b94:	260007b7          	lui	a5,0x26000
10000b98:	06c78793          	addi	a5,a5,108 # 2600006c <_erodata+0x15ffe76c>
10000b9c:	00e7a023          	sw	a4,0(a5)
10000ba0:	f6e41703          	lh	a4,-146(s0)
10000ba4:	260007b7          	lui	a5,0x26000
10000ba8:	06878793          	addi	a5,a5,104 # 26000068 <_erodata+0x15ffe768>
10000bac:	00e7a023          	sw	a4,0(a5)
10000bb0:	f6c41703          	lh	a4,-148(s0)
10000bb4:	260007b7          	lui	a5,0x26000
10000bb8:	06478793          	addi	a5,a5,100 # 26000064 <_erodata+0x15ffe764>
10000bbc:	00e7a023          	sw	a4,0(a5)
10000bc0:	f6a41703          	lh	a4,-150(s0)
10000bc4:	260007b7          	lui	a5,0x26000
10000bc8:	06078793          	addi	a5,a5,96 # 26000060 <_erodata+0x15ffe760>
10000bcc:	00e7a023          	sw	a4,0(a5)
10000bd0:	f6841703          	lh	a4,-152(s0)
10000bd4:	260007b7          	lui	a5,0x26000
10000bd8:	05c78793          	addi	a5,a5,92 # 2600005c <_erodata+0x15ffe75c>
10000bdc:	00e7a023          	sw	a4,0(a5)
10000be0:	f6641703          	lh	a4,-154(s0)
10000be4:	260007b7          	lui	a5,0x26000
10000be8:	05878793          	addi	a5,a5,88 # 26000058 <_erodata+0x15ffe758>
10000bec:	00e7a023          	sw	a4,0(a5)
10000bf0:	f6441703          	lh	a4,-156(s0)
10000bf4:	260007b7          	lui	a5,0x26000
10000bf8:	05478793          	addi	a5,a5,84 # 26000054 <_erodata+0x15ffe754>
10000bfc:	00e7a023          	sw	a4,0(a5)
10000c00:	f6241703          	lh	a4,-158(s0)
10000c04:	260007b7          	lui	a5,0x26000
10000c08:	05078793          	addi	a5,a5,80 # 26000050 <_erodata+0x15ffe750>
10000c0c:	00e7a023          	sw	a4,0(a5)
10000c10:	f6041703          	lh	a4,-160(s0)
10000c14:	260007b7          	lui	a5,0x26000
10000c18:	04c78793          	addi	a5,a5,76 # 2600004c <_erodata+0x15ffe74c>
10000c1c:	00e7a023          	sw	a4,0(a5)
10000c20:	f5e41703          	lh	a4,-162(s0)
10000c24:	260007b7          	lui	a5,0x26000
10000c28:	04878793          	addi	a5,a5,72 # 26000048 <_erodata+0x15ffe748>
10000c2c:	00e7a023          	sw	a4,0(a5)
10000c30:	f5c41703          	lh	a4,-164(s0)
10000c34:	260007b7          	lui	a5,0x26000
10000c38:	04478793          	addi	a5,a5,68 # 26000044 <_erodata+0x15ffe744>
10000c3c:	00e7a023          	sw	a4,0(a5)
10000c40:	f5a41703          	lh	a4,-166(s0)
10000c44:	260007b7          	lui	a5,0x26000
10000c48:	04078793          	addi	a5,a5,64 # 26000040 <_erodata+0x15ffe740>
10000c4c:	00e7a023          	sw	a4,0(a5)
10000c50:	f5841703          	lh	a4,-168(s0)
10000c54:	260007b7          	lui	a5,0x26000
10000c58:	03c78793          	addi	a5,a5,60 # 2600003c <_erodata+0x15ffe73c>
10000c5c:	00e7a023          	sw	a4,0(a5)
10000c60:	f5641703          	lh	a4,-170(s0)
10000c64:	260007b7          	lui	a5,0x26000
10000c68:	03878793          	addi	a5,a5,56 # 26000038 <_erodata+0x15ffe738>
10000c6c:	00e7a023          	sw	a4,0(a5)
10000c70:	f5441703          	lh	a4,-172(s0)
10000c74:	260007b7          	lui	a5,0x26000
10000c78:	03478793          	addi	a5,a5,52 # 26000034 <_erodata+0x15ffe734>
10000c7c:	00e7a023          	sw	a4,0(a5)
10000c80:	f5241703          	lh	a4,-174(s0)
10000c84:	260007b7          	lui	a5,0x26000
10000c88:	03078793          	addi	a5,a5,48 # 26000030 <_erodata+0x15ffe730>
10000c8c:	00e7a023          	sw	a4,0(a5)
10000c90:	f5041703          	lh	a4,-176(s0)
10000c94:	260007b7          	lui	a5,0x26000
10000c98:	02c78793          	addi	a5,a5,44 # 2600002c <_erodata+0x15ffe72c>
10000c9c:	00e7a023          	sw	a4,0(a5)
10000ca0:	f4e41703          	lh	a4,-178(s0)
10000ca4:	260007b7          	lui	a5,0x26000
10000ca8:	02878793          	addi	a5,a5,40 # 26000028 <_erodata+0x15ffe728>
10000cac:	00e7a023          	sw	a4,0(a5)
10000cb0:	f4c41703          	lh	a4,-180(s0)
10000cb4:	260007b7          	lui	a5,0x26000
10000cb8:	02478793          	addi	a5,a5,36 # 26000024 <_erodata+0x15ffe724>
10000cbc:	00e7a023          	sw	a4,0(a5)
10000cc0:	260007b7          	lui	a5,0x26000
10000cc4:	00100713          	li	a4,1
10000cc8:	00e7a023          	sw	a4,0(a5) # 26000000 <_erodata+0x15ffe700>
10000ccc:	00000013          	nop
10000cd0:	260007b7          	lui	a5,0x26000
10000cd4:	0007a703          	lw	a4,0(a5) # 26000000 <_erodata+0x15ffe700>
10000cd8:	00100793          	li	a5,1
10000cdc:	fef70ae3          	beq	a4,a5,10000cd0 <gpio_program+0xab0>
10000ce0:	fe241703          	lh	a4,-30(s0)
10000ce4:	260007b7          	lui	a5,0x26000
10000ce8:	0b878793          	addi	a5,a5,184 # 260000b8 <_erodata+0x15ffe7b8>
10000cec:	00e7a023          	sw	a4,0(a5)
10000cf0:	fe041703          	lh	a4,-32(s0)
10000cf4:	260007b7          	lui	a5,0x26000
10000cf8:	0b478793          	addi	a5,a5,180 # 260000b4 <_erodata+0x15ffe7b4>
10000cfc:	00e7a023          	sw	a4,0(a5)
10000d00:	fde41703          	lh	a4,-34(s0)
10000d04:	260007b7          	lui	a5,0x26000
10000d08:	0b078793          	addi	a5,a5,176 # 260000b0 <_erodata+0x15ffe7b0>
10000d0c:	00e7a023          	sw	a4,0(a5)
10000d10:	fdc41703          	lh	a4,-36(s0)
10000d14:	260007b7          	lui	a5,0x26000
10000d18:	0ac78793          	addi	a5,a5,172 # 260000ac <_erodata+0x15ffe7ac>
10000d1c:	00e7a023          	sw	a4,0(a5)
10000d20:	fda41703          	lh	a4,-38(s0)
10000d24:	260007b7          	lui	a5,0x26000
10000d28:	0a878793          	addi	a5,a5,168 # 260000a8 <_erodata+0x15ffe7a8>
10000d2c:	00e7a023          	sw	a4,0(a5)
10000d30:	fd841703          	lh	a4,-40(s0)
10000d34:	260007b7          	lui	a5,0x26000
10000d38:	0a478793          	addi	a5,a5,164 # 260000a4 <_erodata+0x15ffe7a4>
10000d3c:	00e7a023          	sw	a4,0(a5)
10000d40:	fd641703          	lh	a4,-42(s0)
10000d44:	260007b7          	lui	a5,0x26000
10000d48:	0a078793          	addi	a5,a5,160 # 260000a0 <_erodata+0x15ffe7a0>
10000d4c:	00e7a023          	sw	a4,0(a5)
10000d50:	fd441703          	lh	a4,-44(s0)
10000d54:	260007b7          	lui	a5,0x26000
10000d58:	09c78793          	addi	a5,a5,156 # 2600009c <_erodata+0x15ffe79c>
10000d5c:	00e7a023          	sw	a4,0(a5)
10000d60:	fd241703          	lh	a4,-46(s0)
10000d64:	260007b7          	lui	a5,0x26000
10000d68:	09878793          	addi	a5,a5,152 # 26000098 <_erodata+0x15ffe798>
10000d6c:	00e7a023          	sw	a4,0(a5)
10000d70:	fd041703          	lh	a4,-48(s0)
10000d74:	260007b7          	lui	a5,0x26000
10000d78:	09478793          	addi	a5,a5,148 # 26000094 <_erodata+0x15ffe794>
10000d7c:	00e7a023          	sw	a4,0(a5)
10000d80:	fce41703          	lh	a4,-50(s0)
10000d84:	260007b7          	lui	a5,0x26000
10000d88:	09078793          	addi	a5,a5,144 # 26000090 <_erodata+0x15ffe790>
10000d8c:	00e7a023          	sw	a4,0(a5)
10000d90:	fcc41703          	lh	a4,-52(s0)
10000d94:	260007b7          	lui	a5,0x26000
10000d98:	08c78793          	addi	a5,a5,140 # 2600008c <_erodata+0x15ffe78c>
10000d9c:	00e7a023          	sw	a4,0(a5)
10000da0:	fca41703          	lh	a4,-54(s0)
10000da4:	260007b7          	lui	a5,0x26000
10000da8:	08878793          	addi	a5,a5,136 # 26000088 <_erodata+0x15ffe788>
10000dac:	00e7a023          	sw	a4,0(a5)
10000db0:	fc841703          	lh	a4,-56(s0)
10000db4:	260007b7          	lui	a5,0x26000
10000db8:	08478793          	addi	a5,a5,132 # 26000084 <_erodata+0x15ffe784>
10000dbc:	00e7a023          	sw	a4,0(a5)
10000dc0:	fc641703          	lh	a4,-58(s0)
10000dc4:	260007b7          	lui	a5,0x26000
10000dc8:	08078793          	addi	a5,a5,128 # 26000080 <_erodata+0x15ffe780>
10000dcc:	00e7a023          	sw	a4,0(a5)
10000dd0:	fc441703          	lh	a4,-60(s0)
10000dd4:	260007b7          	lui	a5,0x26000
10000dd8:	07c78793          	addi	a5,a5,124 # 2600007c <_erodata+0x15ffe77c>
10000ddc:	00e7a023          	sw	a4,0(a5)
10000de0:	fc241703          	lh	a4,-62(s0)
10000de4:	260007b7          	lui	a5,0x26000
10000de8:	07878793          	addi	a5,a5,120 # 26000078 <_erodata+0x15ffe778>
10000dec:	00e7a023          	sw	a4,0(a5)
10000df0:	fc041703          	lh	a4,-64(s0)
10000df4:	260007b7          	lui	a5,0x26000
10000df8:	07478793          	addi	a5,a5,116 # 26000074 <_erodata+0x15ffe774>
10000dfc:	00e7a023          	sw	a4,0(a5)
10000e00:	fbe41703          	lh	a4,-66(s0)
10000e04:	260007b7          	lui	a5,0x26000
10000e08:	07078793          	addi	a5,a5,112 # 26000070 <_erodata+0x15ffe770>
10000e0c:	00e7a023          	sw	a4,0(a5)
10000e10:	fbc41703          	lh	a4,-68(s0)
10000e14:	260007b7          	lui	a5,0x26000
10000e18:	06c78793          	addi	a5,a5,108 # 2600006c <_erodata+0x15ffe76c>
10000e1c:	00e7a023          	sw	a4,0(a5)
10000e20:	fba41703          	lh	a4,-70(s0)
10000e24:	260007b7          	lui	a5,0x26000
10000e28:	06878793          	addi	a5,a5,104 # 26000068 <_erodata+0x15ffe768>
10000e2c:	00e7a023          	sw	a4,0(a5)
10000e30:	fb841703          	lh	a4,-72(s0)
10000e34:	260007b7          	lui	a5,0x26000
10000e38:	06478793          	addi	a5,a5,100 # 26000064 <_erodata+0x15ffe764>
10000e3c:	00e7a023          	sw	a4,0(a5)
10000e40:	fb641703          	lh	a4,-74(s0)
10000e44:	260007b7          	lui	a5,0x26000
10000e48:	06078793          	addi	a5,a5,96 # 26000060 <_erodata+0x15ffe760>
10000e4c:	00e7a023          	sw	a4,0(a5)
10000e50:	fb441703          	lh	a4,-76(s0)
10000e54:	260007b7          	lui	a5,0x26000
10000e58:	05c78793          	addi	a5,a5,92 # 2600005c <_erodata+0x15ffe75c>
10000e5c:	00e7a023          	sw	a4,0(a5)
10000e60:	fb241703          	lh	a4,-78(s0)
10000e64:	260007b7          	lui	a5,0x26000
10000e68:	05878793          	addi	a5,a5,88 # 26000058 <_erodata+0x15ffe758>
10000e6c:	00e7a023          	sw	a4,0(a5)
10000e70:	fb041703          	lh	a4,-80(s0)
10000e74:	260007b7          	lui	a5,0x26000
10000e78:	05478793          	addi	a5,a5,84 # 26000054 <_erodata+0x15ffe754>
10000e7c:	00e7a023          	sw	a4,0(a5)
10000e80:	fae41703          	lh	a4,-82(s0)
10000e84:	260007b7          	lui	a5,0x26000
10000e88:	05078793          	addi	a5,a5,80 # 26000050 <_erodata+0x15ffe750>
10000e8c:	00e7a023          	sw	a4,0(a5)
10000e90:	fac41703          	lh	a4,-84(s0)
10000e94:	260007b7          	lui	a5,0x26000
10000e98:	04c78793          	addi	a5,a5,76 # 2600004c <_erodata+0x15ffe74c>
10000e9c:	00e7a023          	sw	a4,0(a5)
10000ea0:	faa41703          	lh	a4,-86(s0)
10000ea4:	260007b7          	lui	a5,0x26000
10000ea8:	04878793          	addi	a5,a5,72 # 26000048 <_erodata+0x15ffe748>
10000eac:	00e7a023          	sw	a4,0(a5)
10000eb0:	fa841703          	lh	a4,-88(s0)
10000eb4:	260007b7          	lui	a5,0x26000
10000eb8:	04478793          	addi	a5,a5,68 # 26000044 <_erodata+0x15ffe744>
10000ebc:	00e7a023          	sw	a4,0(a5)
10000ec0:	fa641703          	lh	a4,-90(s0)
10000ec4:	260007b7          	lui	a5,0x26000
10000ec8:	04078793          	addi	a5,a5,64 # 26000040 <_erodata+0x15ffe740>
10000ecc:	00e7a023          	sw	a4,0(a5)
10000ed0:	fa441703          	lh	a4,-92(s0)
10000ed4:	260007b7          	lui	a5,0x26000
10000ed8:	03c78793          	addi	a5,a5,60 # 2600003c <_erodata+0x15ffe73c>
10000edc:	00e7a023          	sw	a4,0(a5)
10000ee0:	fa241703          	lh	a4,-94(s0)
10000ee4:	260007b7          	lui	a5,0x26000
10000ee8:	03878793          	addi	a5,a5,56 # 26000038 <_erodata+0x15ffe738>
10000eec:	00e7a023          	sw	a4,0(a5)
10000ef0:	fa041703          	lh	a4,-96(s0)
10000ef4:	260007b7          	lui	a5,0x26000
10000ef8:	03478793          	addi	a5,a5,52 # 26000034 <_erodata+0x15ffe734>
10000efc:	00e7a023          	sw	a4,0(a5)
10000f00:	f9e41703          	lh	a4,-98(s0)
10000f04:	260007b7          	lui	a5,0x26000
10000f08:	03078793          	addi	a5,a5,48 # 26000030 <_erodata+0x15ffe730>
10000f0c:	00e7a023          	sw	a4,0(a5)
10000f10:	f9c41703          	lh	a4,-100(s0)
10000f14:	260007b7          	lui	a5,0x26000
10000f18:	02c78793          	addi	a5,a5,44 # 2600002c <_erodata+0x15ffe72c>
10000f1c:	00e7a023          	sw	a4,0(a5)
10000f20:	f9a41703          	lh	a4,-102(s0)
10000f24:	260007b7          	lui	a5,0x26000
10000f28:	02878793          	addi	a5,a5,40 # 26000028 <_erodata+0x15ffe728>
10000f2c:	00e7a023          	sw	a4,0(a5)
10000f30:	f9841703          	lh	a4,-104(s0)
10000f34:	260007b7          	lui	a5,0x26000
10000f38:	02478793          	addi	a5,a5,36 # 26000024 <_erodata+0x15ffe724>
10000f3c:	00e7a023          	sw	a4,0(a5)
10000f40:	00000013          	nop
10000f44:	0bc12403          	lw	s0,188(sp)
10000f48:	0c010113          	addi	sp,sp,192
10000f4c:	00008067          	ret

10000f50 <flush_cpu_icache>:
10000f50:	ff010113          	addi	sp,sp,-16
10000f54:	00812623          	sw	s0,12(sp)
10000f58:	01010413          	addi	s0,sp,16
10000f5c:	00000013          	nop
10000f60:	00c12403          	lw	s0,12(sp)
10000f64:	01010113          	addi	sp,sp,16
10000f68:	00008067          	ret

10000f6c <flush_cpu_dcache>:
10000f6c:	ff010113          	addi	sp,sp,-16
10000f70:	00812623          	sw	s0,12(sp)
10000f74:	01010413          	addi	s0,sp,16
10000f78:	00000013          	nop
10000f7c:	00c12403          	lw	s0,12(sp)
10000f80:	01010113          	addi	sp,sp,16
10000f84:	00008067          	ret

10000f88 <delay>:
10000f88:	fe010113          	addi	sp,sp,-32
10000f8c:	00812e23          	sw	s0,28(sp)
10000f90:	02010413          	addi	s0,sp,32
10000f94:	fea42623          	sw	a0,-20(s0)
10000f98:	f00057b7          	lui	a5,0xf0005
10000f9c:	00878793          	addi	a5,a5,8 # f0005008 <_erodata+0xe0003708>
10000fa0:	0007a023          	sw	zero,0(a5)
10000fa4:	f00057b7          	lui	a5,0xf0005
10000fa8:	fec42703          	lw	a4,-20(s0)
10000fac:	00e7a023          	sw	a4,0(a5) # f0005000 <_erodata+0xe0003700>
10000fb0:	f00057b7          	lui	a5,0xf0005
10000fb4:	00878793          	addi	a5,a5,8 # f0005008 <_erodata+0xe0003708>
10000fb8:	00100713          	li	a4,1
10000fbc:	00e7a023          	sw	a4,0(a5)
10000fc0:	f00057b7          	lui	a5,0xf0005
10000fc4:	00c78793          	addi	a5,a5,12 # f000500c <_erodata+0xe000370c>
10000fc8:	00100713          	li	a4,1
10000fcc:	00e7a023          	sw	a4,0(a5)
10000fd0:	0140006f          	j	10000fe4 <delay+0x5c>
10000fd4:	f00057b7          	lui	a5,0xf0005
10000fd8:	00c78793          	addi	a5,a5,12 # f000500c <_erodata+0xe000370c>
10000fdc:	00100713          	li	a4,1
10000fe0:	00e7a023          	sw	a4,0(a5)
10000fe4:	f00057b7          	lui	a5,0xf0005
10000fe8:	01078793          	addi	a5,a5,16 # f0005010 <_erodata+0xe0003710>
10000fec:	0007a783          	lw	a5,0(a5)
10000ff0:	fe0792e3          	bnez	a5,10000fd4 <delay+0x4c>
10000ff4:	00000013          	nop
10000ff8:	00000013          	nop
10000ffc:	01c12403          	lw	s0,28(sp)
10001000:	02010113          	addi	sp,sp,32
10001004:	00008067          	ret

10001008 <bb_mode>:
10001008:	ff010113          	addi	sp,sp,-16
1000100c:	00812623          	sw	s0,12(sp)
10001010:	01010413          	addi	s0,sp,16
10001014:	260007b7          	lui	a5,0x26000
10001018:	00600713          	li	a4,6
1000101c:	00e7a023          	sw	a4,0(a5) # 26000000 <_erodata+0x15ffe700>
10001020:	260007b7          	lui	a5,0x26000
10001024:	00200713          	li	a4,2
10001028:	00e7a023          	sw	a4,0(a5) # 26000000 <_erodata+0x15ffe700>
1000102c:	260007b7          	lui	a5,0x26000
10001030:	00600713          	li	a4,6
10001034:	00e7a023          	sw	a4,0(a5) # 26000000 <_erodata+0x15ffe700>
10001038:	00000013          	nop
1000103c:	00c12403          	lw	s0,12(sp)
10001040:	01010113          	addi	sp,sp,16
10001044:	00008067          	ret

10001048 <load>:
10001048:	ff010113          	addi	sp,sp,-16
1000104c:	00112623          	sw	ra,12(sp)
10001050:	00812423          	sw	s0,8(sp)
10001054:	01010413          	addi	s0,sp,16
10001058:	260007b7          	lui	a5,0x26000
1000105c:	00600713          	li	a4,6
10001060:	00e7a023          	sw	a4,0(a5) # 26000000 <_erodata+0x15ffe700>
10001064:	0000c7b7          	lui	a5,0xc
10001068:	35078513          	addi	a0,a5,848 # c350 <_fstack+0xbf50>
1000106c:	f1dff0ef          	jal	ra,10000f88 <delay>
10001070:	260007b7          	lui	a5,0x26000
10001074:	00e00713          	li	a4,14
10001078:	00e7a023          	sw	a4,0(a5) # 26000000 <_erodata+0x15ffe700>
1000107c:	0000c7b7          	lui	a5,0xc
10001080:	35078513          	addi	a0,a5,848 # c350 <_fstack+0xbf50>
10001084:	f05ff0ef          	jal	ra,10000f88 <delay>
10001088:	260007b7          	lui	a5,0x26000
1000108c:	00600713          	li	a4,6
10001090:	00e7a023          	sw	a4,0(a5) # 26000000 <_erodata+0x15ffe700>
10001094:	0000c7b7          	lui	a5,0xc
10001098:	35078513          	addi	a0,a5,848 # c350 <_fstack+0xbf50>
1000109c:	eedff0ef          	jal	ra,10000f88 <delay>
100010a0:	00000013          	nop
100010a4:	00c12083          	lw	ra,12(sp)
100010a8:	00812403          	lw	s0,8(sp)
100010ac:	01010113          	addi	sp,sp,16
100010b0:	00008067          	ret

100010b4 <clear_registers>:
100010b4:	fe010113          	addi	sp,sp,-32
100010b8:	00112e23          	sw	ra,28(sp)
100010bc:	00812c23          	sw	s0,24(sp)
100010c0:	02010413          	addi	s0,sp,32
100010c4:	fe042623          	sw	zero,-20(s0)
100010c8:	0400006f          	j	10001108 <clear_registers+0x54>
100010cc:	260007b7          	lui	a5,0x26000
100010d0:	00600713          	li	a4,6
100010d4:	00e7a023          	sw	a4,0(a5) # 26000000 <_erodata+0x15ffe700>
100010d8:	0000c7b7          	lui	a5,0xc
100010dc:	35078513          	addi	a0,a5,848 # c350 <_fstack+0xbf50>
100010e0:	ea9ff0ef          	jal	ra,10000f88 <delay>
100010e4:	260007b7          	lui	a5,0x26000
100010e8:	01600713          	li	a4,22
100010ec:	00e7a023          	sw	a4,0(a5) # 26000000 <_erodata+0x15ffe700>
100010f0:	0000c7b7          	lui	a5,0xc
100010f4:	35078513          	addi	a0,a5,848 # c350 <_fstack+0xbf50>
100010f8:	e91ff0ef          	jal	ra,10000f88 <delay>
100010fc:	fec42783          	lw	a5,-20(s0)
10001100:	00178793          	addi	a5,a5,1
10001104:	fef42623          	sw	a5,-20(s0)
10001108:	fec42703          	lw	a4,-20(s0)
1000110c:	0f900793          	li	a5,249
10001110:	fae7dee3          	bge	a5,a4,100010cc <clear_registers+0x18>
10001114:	f35ff0ef          	jal	ra,10001048 <load>
10001118:	00000013          	nop
1000111c:	01c12083          	lw	ra,28(sp)
10001120:	01812403          	lw	s0,24(sp)
10001124:	02010113          	addi	sp,sp,32
10001128:	00008067          	ret

1000112c <gpio_config_io>:
1000112c:	fe010113          	addi	sp,sp,-32
10001130:	00112e23          	sw	ra,28(sp)
10001134:	00812c23          	sw	s0,24(sp)
10001138:	02010413          	addi	s0,sp,32
1000113c:	fe042623          	sw	zero,-20(s0)
10001140:	f75ff0ef          	jal	ra,100010b4 <clear_registers>
10001144:	05c0006f          	j	100011a0 <gpio_config_io+0x74>
10001148:	00000713          	li	a4,0
1000114c:	fec42783          	lw	a5,-20(s0)
10001150:	00f707b3          	add	a5,a4,a5
10001154:	0007c703          	lbu	a4,0(a5)
10001158:	260007b7          	lui	a5,0x26000
1000115c:	00e7a023          	sw	a4,0(a5) # 26000000 <_erodata+0x15ffe700>
10001160:	0000c7b7          	lui	a5,0xc
10001164:	35078513          	addi	a0,a5,848 # c350 <_fstack+0xbf50>
10001168:	e21ff0ef          	jal	ra,10000f88 <delay>
1000116c:	00000713          	li	a4,0
10001170:	fec42783          	lw	a5,-20(s0)
10001174:	00f707b3          	add	a5,a4,a5
10001178:	0007c783          	lbu	a5,0(a5)
1000117c:	01078713          	addi	a4,a5,16
10001180:	260007b7          	lui	a5,0x26000
10001184:	00e7a023          	sw	a4,0(a5) # 26000000 <_erodata+0x15ffe700>
10001188:	0000c7b7          	lui	a5,0xc
1000118c:	35078513          	addi	a0,a5,848 # c350 <_fstack+0xbf50>
10001190:	df9ff0ef          	jal	ra,10000f88 <delay>
10001194:	fec42783          	lw	a5,-20(s0)
10001198:	00178793          	addi	a5,a5,1
1000119c:	fef42623          	sw	a5,-20(s0)
100011a0:	0f002783          	lw	a5,240(zero) # f0 <n_bits>
100011a4:	fec42703          	lw	a4,-20(s0)
100011a8:	faf740e3          	blt	a4,a5,10001148 <gpio_config_io+0x1c>
100011ac:	e9dff0ef          	jal	ra,10001048 <load>
100011b0:	00000013          	nop
100011b4:	01c12083          	lw	ra,28(sp)
100011b8:	01812403          	lw	s0,24(sp)
100011bc:	02010113          	addi	sp,sp,32
100011c0:	00008067          	ret

100011c4 <putchar>:
100011c4:	fe010113          	addi	sp,sp,-32
100011c8:	00112e23          	sw	ra,28(sp)
100011cc:	00812c23          	sw	s0,24(sp)
100011d0:	02010413          	addi	s0,sp,32
100011d4:	00050793          	mv	a5,a0
100011d8:	fef407a3          	sb	a5,-17(s0)
100011dc:	fef44703          	lbu	a4,-17(s0)
100011e0:	00a00793          	li	a5,10
100011e4:	00f71663          	bne	a4,a5,100011f0 <putchar+0x2c>
100011e8:	00d00513          	li	a0,13
100011ec:	fd9ff0ef          	jal	ra,100011c4 <putchar>
100011f0:	00000013          	nop
100011f4:	f00067b7          	lui	a5,0xf0006
100011f8:	80478793          	addi	a5,a5,-2044 # f0005804 <_erodata+0xe0003f04>
100011fc:	0007a703          	lw	a4,0(a5)
10001200:	00100793          	li	a5,1
10001204:	fef708e3          	beq	a4,a5,100011f4 <putchar+0x30>
10001208:	f00067b7          	lui	a5,0xf0006
1000120c:	80078793          	addi	a5,a5,-2048 # f0005800 <_erodata+0xe0003f00>
10001210:	fef44703          	lbu	a4,-17(s0)
10001214:	00e7a023          	sw	a4,0(a5)
10001218:	00000013          	nop
1000121c:	01c12083          	lw	ra,28(sp)
10001220:	01812403          	lw	s0,24(sp)
10001224:	02010113          	addi	sp,sp,32
10001228:	00008067          	ret

1000122c <print>:
1000122c:	fe010113          	addi	sp,sp,-32
10001230:	00112e23          	sw	ra,28(sp)
10001234:	00812c23          	sw	s0,24(sp)
10001238:	02010413          	addi	s0,sp,32
1000123c:	fea42623          	sw	a0,-20(s0)
10001240:	01c0006f          	j	1000125c <print+0x30>
10001244:	fec42783          	lw	a5,-20(s0)
10001248:	00178713          	addi	a4,a5,1
1000124c:	fee42623          	sw	a4,-20(s0)
10001250:	0007c783          	lbu	a5,0(a5)
10001254:	00078513          	mv	a0,a5
10001258:	f6dff0ef          	jal	ra,100011c4 <putchar>
1000125c:	fec42783          	lw	a5,-20(s0)
10001260:	0007c783          	lbu	a5,0(a5)
10001264:	fe0790e3          	bnez	a5,10001244 <print+0x18>
10001268:	00000013          	nop
1000126c:	00000013          	nop
10001270:	01c12083          	lw	ra,28(sp)
10001274:	01812403          	lw	s0,24(sp)
10001278:	02010113          	addi	sp,sp,32
1000127c:	00008067          	ret

10001280 <blink_short>:
10001280:	fe010113          	addi	sp,sp,-32
10001284:	00112e23          	sw	ra,28(sp)
10001288:	00812c23          	sw	s0,24(sp)
1000128c:	02010413          	addi	s0,sp,32
10001290:	000f47b7          	lui	a5,0xf4
10001294:	24078793          	addi	a5,a5,576 # f4240 <_fstack+0xf3e40>
10001298:	fef42623          	sw	a5,-20(s0)
1000129c:	f00037b7          	lui	a5,0xf0003
100012a0:	80078793          	addi	a5,a5,-2048 # f0002800 <_erodata+0xe0000f00>
100012a4:	00100713          	li	a4,1
100012a8:	00e7a023          	sw	a4,0(a5)
100012ac:	f00037b7          	lui	a5,0xf0003
100012b0:	80478793          	addi	a5,a5,-2044 # f0002804 <_erodata+0xe0000f04>
100012b4:	0007a023          	sw	zero,0(a5)
100012b8:	f00037b7          	lui	a5,0xf0003
100012bc:	80878793          	addi	a5,a5,-2040 # f0002808 <_erodata+0xe0000f08>
100012c0:	00100713          	li	a4,1
100012c4:	00e7a023          	sw	a4,0(a5)
100012c8:	f00037b7          	lui	a5,0xf0003
100012cc:	80c78793          	addi	a5,a5,-2036 # f000280c <_erodata+0xe0000f0c>
100012d0:	00100713          	li	a4,1
100012d4:	00e7a023          	sw	a4,0(a5)
100012d8:	f00037b7          	lui	a5,0xf0003
100012dc:	81478793          	addi	a5,a5,-2028 # f0002814 <_erodata+0xe0000f14>
100012e0:	0007a023          	sw	zero,0(a5)
100012e4:	fec42503          	lw	a0,-20(s0)
100012e8:	ca1ff0ef          	jal	ra,10000f88 <delay>
100012ec:	f00037b7          	lui	a5,0xf0003
100012f0:	81478793          	addi	a5,a5,-2028 # f0002814 <_erodata+0xe0000f14>
100012f4:	00100713          	li	a4,1
100012f8:	00e7a023          	sw	a4,0(a5)
100012fc:	fec42503          	lw	a0,-20(s0)
10001300:	c89ff0ef          	jal	ra,10000f88 <delay>
10001304:	00000013          	nop
10001308:	01c12083          	lw	ra,28(sp)
1000130c:	01812403          	lw	s0,24(sp)
10001310:	02010113          	addi	sp,sp,32
10001314:	00008067          	ret

10001318 <blink_long>:
10001318:	fe010113          	addi	sp,sp,-32
1000131c:	00112e23          	sw	ra,28(sp)
10001320:	00812c23          	sw	s0,24(sp)
10001324:	02010413          	addi	s0,sp,32
10001328:	002dc7b7          	lui	a5,0x2dc
1000132c:	6c078793          	addi	a5,a5,1728 # 2dc6c0 <_fstack+0x2dc2c0>
10001330:	fef42623          	sw	a5,-20(s0)
10001334:	f00037b7          	lui	a5,0xf0003
10001338:	80078793          	addi	a5,a5,-2048 # f0002800 <_erodata+0xe0000f00>
1000133c:	00100713          	li	a4,1
10001340:	00e7a023          	sw	a4,0(a5)
10001344:	f00037b7          	lui	a5,0xf0003
10001348:	80478793          	addi	a5,a5,-2044 # f0002804 <_erodata+0xe0000f04>
1000134c:	0007a023          	sw	zero,0(a5)
10001350:	f00037b7          	lui	a5,0xf0003
10001354:	80878793          	addi	a5,a5,-2040 # f0002808 <_erodata+0xe0000f08>
10001358:	00100713          	li	a4,1
1000135c:	00e7a023          	sw	a4,0(a5)
10001360:	f00037b7          	lui	a5,0xf0003
10001364:	80c78793          	addi	a5,a5,-2036 # f000280c <_erodata+0xe0000f0c>
10001368:	00100713          	li	a4,1
1000136c:	00e7a023          	sw	a4,0(a5)
10001370:	f00037b7          	lui	a5,0xf0003
10001374:	81478793          	addi	a5,a5,-2028 # f0002814 <_erodata+0xe0000f14>
10001378:	0007a023          	sw	zero,0(a5)
1000137c:	fec42503          	lw	a0,-20(s0)
10001380:	c09ff0ef          	jal	ra,10000f88 <delay>
10001384:	f00037b7          	lui	a5,0xf0003
10001388:	81478793          	addi	a5,a5,-2028 # f0002814 <_erodata+0xe0000f14>
1000138c:	00100713          	li	a4,1
10001390:	00e7a023          	sw	a4,0(a5)
10001394:	fec42503          	lw	a0,-20(s0)
10001398:	bf1ff0ef          	jal	ra,10000f88 <delay>
1000139c:	00000013          	nop
100013a0:	01c12083          	lw	ra,28(sp)
100013a4:	01812403          	lw	s0,24(sp)
100013a8:	02010113          	addi	sp,sp,32
100013ac:	00008067          	ret

100013b0 <set_registers>:
100013b0:	ff010113          	addi	sp,sp,-16
100013b4:	00812623          	sw	s0,12(sp)
100013b8:	01010413          	addi	s0,sp,16
100013bc:	260007b7          	lui	a5,0x26000
100013c0:	02478793          	addi	a5,a5,36 # 26000024 <_erodata+0x15ffe724>
100013c4:	00001737          	lui	a4,0x1
100013c8:	00b70713          	addi	a4,a4,11 # 100b <_fstack+0xc0b>
100013cc:	00e7a023          	sw	a4,0(a5)
100013d0:	260007b7          	lui	a5,0x26000
100013d4:	02878793          	addi	a5,a5,40 # 26000028 <_erodata+0x15ffe728>
100013d8:	00002737          	lui	a4,0x2
100013dc:	80970713          	addi	a4,a4,-2039 # 1809 <_fstack+0x1409>
100013e0:	00e7a023          	sw	a4,0(a5)
100013e4:	260007b7          	lui	a5,0x26000
100013e8:	02c78793          	addi	a5,a5,44 # 2600002c <_erodata+0x15ffe72c>
100013ec:	00002737          	lui	a4,0x2
100013f0:	80970713          	addi	a4,a4,-2039 # 1809 <_fstack+0x1409>
100013f4:	00e7a023          	sw	a4,0(a5)
100013f8:	260007b7          	lui	a5,0x26000
100013fc:	03078793          	addi	a5,a5,48 # 26000030 <_erodata+0x15ffe730>
10001400:	00002737          	lui	a4,0x2
10001404:	80970713          	addi	a4,a4,-2039 # 1809 <_fstack+0x1409>
10001408:	00e7a023          	sw	a4,0(a5)
1000140c:	260007b7          	lui	a5,0x26000
10001410:	03478793          	addi	a5,a5,52 # 26000034 <_erodata+0x15ffe734>
10001414:	00002737          	lui	a4,0x2
10001418:	80970713          	addi	a4,a4,-2039 # 1809 <_fstack+0x1409>
1000141c:	00e7a023          	sw	a4,0(a5)
10001420:	260007b7          	lui	a5,0x26000
10001424:	03878793          	addi	a5,a5,56 # 26000038 <_erodata+0x15ffe738>
10001428:	00002737          	lui	a4,0x2
1000142c:	80970713          	addi	a4,a4,-2039 # 1809 <_fstack+0x1409>
10001430:	00e7a023          	sw	a4,0(a5)
10001434:	260007b7          	lui	a5,0x26000
10001438:	03c78793          	addi	a5,a5,60 # 2600003c <_erodata+0x15ffe73c>
1000143c:	00002737          	lui	a4,0x2
10001440:	80970713          	addi	a4,a4,-2039 # 1809 <_fstack+0x1409>
10001444:	00e7a023          	sw	a4,0(a5)
10001448:	260007b7          	lui	a5,0x26000
1000144c:	04078793          	addi	a5,a5,64 # 26000040 <_erodata+0x15ffe740>
10001450:	00002737          	lui	a4,0x2
10001454:	80970713          	addi	a4,a4,-2039 # 1809 <_fstack+0x1409>
10001458:	00e7a023          	sw	a4,0(a5)
1000145c:	260007b7          	lui	a5,0x26000
10001460:	04478793          	addi	a5,a5,68 # 26000044 <_erodata+0x15ffe744>
10001464:	00002737          	lui	a4,0x2
10001468:	80970713          	addi	a4,a4,-2039 # 1809 <_fstack+0x1409>
1000146c:	00e7a023          	sw	a4,0(a5)
10001470:	260007b7          	lui	a5,0x26000
10001474:	04878793          	addi	a5,a5,72 # 26000048 <_erodata+0x15ffe748>
10001478:	00002737          	lui	a4,0x2
1000147c:	80970713          	addi	a4,a4,-2039 # 1809 <_fstack+0x1409>
10001480:	00e7a023          	sw	a4,0(a5)
10001484:	260007b7          	lui	a5,0x26000
10001488:	04c78793          	addi	a5,a5,76 # 2600004c <_erodata+0x15ffe74c>
1000148c:	00002737          	lui	a4,0x2
10001490:	80970713          	addi	a4,a4,-2039 # 1809 <_fstack+0x1409>
10001494:	00e7a023          	sw	a4,0(a5)
10001498:	260007b7          	lui	a5,0x26000
1000149c:	05078793          	addi	a5,a5,80 # 26000050 <_erodata+0x15ffe750>
100014a0:	00002737          	lui	a4,0x2
100014a4:	80970713          	addi	a4,a4,-2039 # 1809 <_fstack+0x1409>
100014a8:	00e7a023          	sw	a4,0(a5)
100014ac:	260007b7          	lui	a5,0x26000
100014b0:	05478793          	addi	a5,a5,84 # 26000054 <_erodata+0x15ffe754>
100014b4:	00002737          	lui	a4,0x2
100014b8:	80970713          	addi	a4,a4,-2039 # 1809 <_fstack+0x1409>
100014bc:	00e7a023          	sw	a4,0(a5)
100014c0:	260007b7          	lui	a5,0x26000
100014c4:	05878793          	addi	a5,a5,88 # 26000058 <_erodata+0x15ffe758>
100014c8:	00002737          	lui	a4,0x2
100014cc:	80970713          	addi	a4,a4,-2039 # 1809 <_fstack+0x1409>
100014d0:	00e7a023          	sw	a4,0(a5)
100014d4:	260007b7          	lui	a5,0x26000
100014d8:	05c78793          	addi	a5,a5,92 # 2600005c <_erodata+0x15ffe75c>
100014dc:	00002737          	lui	a4,0x2
100014e0:	80970713          	addi	a4,a4,-2039 # 1809 <_fstack+0x1409>
100014e4:	00e7a023          	sw	a4,0(a5)
100014e8:	260007b7          	lui	a5,0x26000
100014ec:	06078793          	addi	a5,a5,96 # 26000060 <_erodata+0x15ffe760>
100014f0:	00002737          	lui	a4,0x2
100014f4:	80970713          	addi	a4,a4,-2039 # 1809 <_fstack+0x1409>
100014f8:	00e7a023          	sw	a4,0(a5)
100014fc:	260007b7          	lui	a5,0x26000
10001500:	06478793          	addi	a5,a5,100 # 26000064 <_erodata+0x15ffe764>
10001504:	00002737          	lui	a4,0x2
10001508:	80970713          	addi	a4,a4,-2039 # 1809 <_fstack+0x1409>
1000150c:	00e7a023          	sw	a4,0(a5)
10001510:	260007b7          	lui	a5,0x26000
10001514:	06878793          	addi	a5,a5,104 # 26000068 <_erodata+0x15ffe768>
10001518:	00002737          	lui	a4,0x2
1000151c:	80970713          	addi	a4,a4,-2039 # 1809 <_fstack+0x1409>
10001520:	00e7a023          	sw	a4,0(a5)
10001524:	260007b7          	lui	a5,0x26000
10001528:	06c78793          	addi	a5,a5,108 # 2600006c <_erodata+0x15ffe76c>
1000152c:	00002737          	lui	a4,0x2
10001530:	80970713          	addi	a4,a4,-2039 # 1809 <_fstack+0x1409>
10001534:	00e7a023          	sw	a4,0(a5)
10001538:	260007b7          	lui	a5,0x26000
1000153c:	07078793          	addi	a5,a5,112 # 26000070 <_erodata+0x15ffe770>
10001540:	00002737          	lui	a4,0x2
10001544:	80970713          	addi	a4,a4,-2039 # 1809 <_fstack+0x1409>
10001548:	00e7a023          	sw	a4,0(a5)
1000154c:	260007b7          	lui	a5,0x26000
10001550:	07478793          	addi	a5,a5,116 # 26000074 <_erodata+0x15ffe774>
10001554:	00002737          	lui	a4,0x2
10001558:	80970713          	addi	a4,a4,-2039 # 1809 <_fstack+0x1409>
1000155c:	00e7a023          	sw	a4,0(a5)
10001560:	260007b7          	lui	a5,0x26000
10001564:	07878793          	addi	a5,a5,120 # 26000078 <_erodata+0x15ffe778>
10001568:	00002737          	lui	a4,0x2
1000156c:	80970713          	addi	a4,a4,-2039 # 1809 <_fstack+0x1409>
10001570:	00e7a023          	sw	a4,0(a5)
10001574:	260007b7          	lui	a5,0x26000
10001578:	07c78793          	addi	a5,a5,124 # 2600007c <_erodata+0x15ffe77c>
1000157c:	00002737          	lui	a4,0x2
10001580:	80970713          	addi	a4,a4,-2039 # 1809 <_fstack+0x1409>
10001584:	00e7a023          	sw	a4,0(a5)
10001588:	260007b7          	lui	a5,0x26000
1000158c:	08078793          	addi	a5,a5,128 # 26000080 <_erodata+0x15ffe780>
10001590:	00002737          	lui	a4,0x2
10001594:	80970713          	addi	a4,a4,-2039 # 1809 <_fstack+0x1409>
10001598:	00e7a023          	sw	a4,0(a5)
1000159c:	260007b7          	lui	a5,0x26000
100015a0:	08478793          	addi	a5,a5,132 # 26000084 <_erodata+0x15ffe784>
100015a4:	00002737          	lui	a4,0x2
100015a8:	80970713          	addi	a4,a4,-2039 # 1809 <_fstack+0x1409>
100015ac:	00e7a023          	sw	a4,0(a5)
100015b0:	260007b7          	lui	a5,0x26000
100015b4:	08878793          	addi	a5,a5,136 # 26000088 <_erodata+0x15ffe788>
100015b8:	00002737          	lui	a4,0x2
100015bc:	80970713          	addi	a4,a4,-2039 # 1809 <_fstack+0x1409>
100015c0:	00e7a023          	sw	a4,0(a5)
100015c4:	260007b7          	lui	a5,0x26000
100015c8:	08c78793          	addi	a5,a5,140 # 2600008c <_erodata+0x15ffe78c>
100015cc:	00002737          	lui	a4,0x2
100015d0:	80970713          	addi	a4,a4,-2039 # 1809 <_fstack+0x1409>
100015d4:	00e7a023          	sw	a4,0(a5)
100015d8:	260007b7          	lui	a5,0x26000
100015dc:	09078793          	addi	a5,a5,144 # 26000090 <_erodata+0x15ffe790>
100015e0:	00002737          	lui	a4,0x2
100015e4:	80970713          	addi	a4,a4,-2039 # 1809 <_fstack+0x1409>
100015e8:	00e7a023          	sw	a4,0(a5)
100015ec:	260007b7          	lui	a5,0x26000
100015f0:	09478793          	addi	a5,a5,148 # 26000094 <_erodata+0x15ffe794>
100015f4:	00002737          	lui	a4,0x2
100015f8:	80970713          	addi	a4,a4,-2039 # 1809 <_fstack+0x1409>
100015fc:	00e7a023          	sw	a4,0(a5)
10001600:	260007b7          	lui	a5,0x26000
10001604:	09878793          	addi	a5,a5,152 # 26000098 <_erodata+0x15ffe798>
10001608:	00002737          	lui	a4,0x2
1000160c:	80970713          	addi	a4,a4,-2039 # 1809 <_fstack+0x1409>
10001610:	00e7a023          	sw	a4,0(a5)
10001614:	260007b7          	lui	a5,0x26000
10001618:	09c78793          	addi	a5,a5,156 # 2600009c <_erodata+0x15ffe79c>
1000161c:	00002737          	lui	a4,0x2
10001620:	80970713          	addi	a4,a4,-2039 # 1809 <_fstack+0x1409>
10001624:	00e7a023          	sw	a4,0(a5)
10001628:	260007b7          	lui	a5,0x26000
1000162c:	0a078793          	addi	a5,a5,160 # 260000a0 <_erodata+0x15ffe7a0>
10001630:	00002737          	lui	a4,0x2
10001634:	80970713          	addi	a4,a4,-2039 # 1809 <_fstack+0x1409>
10001638:	00e7a023          	sw	a4,0(a5)
1000163c:	260007b7          	lui	a5,0x26000
10001640:	0a478793          	addi	a5,a5,164 # 260000a4 <_erodata+0x15ffe7a4>
10001644:	00002737          	lui	a4,0x2
10001648:	80970713          	addi	a4,a4,-2039 # 1809 <_fstack+0x1409>
1000164c:	00e7a023          	sw	a4,0(a5)
10001650:	260007b7          	lui	a5,0x26000
10001654:	0a878793          	addi	a5,a5,168 # 260000a8 <_erodata+0x15ffe7a8>
10001658:	00002737          	lui	a4,0x2
1000165c:	80970713          	addi	a4,a4,-2039 # 1809 <_fstack+0x1409>
10001660:	00e7a023          	sw	a4,0(a5)
10001664:	260007b7          	lui	a5,0x26000
10001668:	0ac78793          	addi	a5,a5,172 # 260000ac <_erodata+0x15ffe7ac>
1000166c:	00002737          	lui	a4,0x2
10001670:	80970713          	addi	a4,a4,-2039 # 1809 <_fstack+0x1409>
10001674:	00e7a023          	sw	a4,0(a5)
10001678:	260007b7          	lui	a5,0x26000
1000167c:	0b078793          	addi	a5,a5,176 # 260000b0 <_erodata+0x15ffe7b0>
10001680:	00002737          	lui	a4,0x2
10001684:	80970713          	addi	a4,a4,-2039 # 1809 <_fstack+0x1409>
10001688:	00e7a023          	sw	a4,0(a5)
1000168c:	260007b7          	lui	a5,0x26000
10001690:	0b478793          	addi	a5,a5,180 # 260000b4 <_erodata+0x15ffe7b4>
10001694:	00002737          	lui	a4,0x2
10001698:	80970713          	addi	a4,a4,-2039 # 1809 <_fstack+0x1409>
1000169c:	00e7a023          	sw	a4,0(a5)
100016a0:	260007b7          	lui	a5,0x26000
100016a4:	0b878793          	addi	a5,a5,184 # 260000b8 <_erodata+0x15ffe7b8>
100016a8:	00002737          	lui	a4,0x2
100016ac:	80970713          	addi	a4,a4,-2039 # 1809 <_fstack+0x1409>
100016b0:	00e7a023          	sw	a4,0(a5)
100016b4:	00000013          	nop
100016b8:	00c12403          	lw	s0,12(sp)
100016bc:	01010113          	addi	sp,sp,16
100016c0:	00008067          	ret

100016c4 <main>:
100016c4:	ff010113          	addi	sp,sp,-16
100016c8:	00112623          	sw	ra,12(sp)
100016cc:	00812423          	sw	s0,8(sp)
100016d0:	01010413          	addi	s0,sp,16
100016d4:	260007b7          	lui	a5,0x26000
100016d8:	04478793          	addi	a5,a5,68 # 26000044 <_erodata+0x15ffe744>
100016dc:	40200713          	li	a4,1026
100016e0:	00e7a023          	sw	a4,0(a5)
100016e4:	260007b7          	lui	a5,0x26000
100016e8:	04878793          	addi	a5,a5,72 # 26000048 <_erodata+0x15ffe748>
100016ec:	00001737          	lui	a4,0x1
100016f0:	c0070713          	addi	a4,a4,-1024 # c00 <_fstack+0x800>
100016f4:	00e7a023          	sw	a4,0(a5)
100016f8:	260007b7          	lui	a5,0x26000
100016fc:	04c78793          	addi	a5,a5,76 # 2600004c <_erodata+0x15ffe74c>
10001700:	00001737          	lui	a4,0x1
10001704:	c0070713          	addi	a4,a4,-1024 # c00 <_fstack+0x800>
10001708:	00e7a023          	sw	a4,0(a5)
1000170c:	260007b7          	lui	a5,0x26000
10001710:	05078793          	addi	a5,a5,80 # 26000050 <_erodata+0x15ffe750>
10001714:	00001737          	lui	a4,0x1
10001718:	c0070713          	addi	a4,a4,-1024 # c00 <_fstack+0x800>
1000171c:	00e7a023          	sw	a4,0(a5)
10001720:	260007b7          	lui	a5,0x26000
10001724:	05478793          	addi	a5,a5,84 # 26000054 <_erodata+0x15ffe754>
10001728:	00001737          	lui	a4,0x1
1000172c:	c0070713          	addi	a4,a4,-1024 # c00 <_fstack+0x800>
10001730:	00e7a023          	sw	a4,0(a5)
10001734:	260007b7          	lui	a5,0x26000
10001738:	05878793          	addi	a5,a5,88 # 26000058 <_erodata+0x15ffe758>
1000173c:	00001737          	lui	a4,0x1
10001740:	c0070713          	addi	a4,a4,-1024 # c00 <_fstack+0x800>
10001744:	00e7a023          	sw	a4,0(a5)
10001748:	260007b7          	lui	a5,0x26000
1000174c:	05c78793          	addi	a5,a5,92 # 2600005c <_erodata+0x15ffe75c>
10001750:	00001737          	lui	a4,0x1
10001754:	c0070713          	addi	a4,a4,-1024 # c00 <_fstack+0x800>
10001758:	00e7a023          	sw	a4,0(a5)
1000175c:	260007b7          	lui	a5,0x26000
10001760:	06078793          	addi	a5,a5,96 # 26000060 <_erodata+0x15ffe760>
10001764:	00001737          	lui	a4,0x1
10001768:	c0070713          	addi	a4,a4,-1024 # c00 <_fstack+0x800>
1000176c:	00e7a023          	sw	a4,0(a5)
10001770:	260007b7          	lui	a5,0x26000
10001774:	06478793          	addi	a5,a5,100 # 26000064 <_erodata+0x15ffe764>
10001778:	00001737          	lui	a4,0x1
1000177c:	c0070713          	addi	a4,a4,-1024 # c00 <_fstack+0x800>
10001780:	00e7a023          	sw	a4,0(a5)
10001784:	9a9ff0ef          	jal	ra,1000112c <gpio_config_io>
10001788:	f00037b7          	lui	a5,0xf0003
1000178c:	00878793          	addi	a5,a5,8 # f0003008 <_erodata+0xe0001708>
10001790:	0007a023          	sw	zero,0(a5)
10001794:	f00037b7          	lui	a5,0xf0003
10001798:	01878793          	addi	a5,a5,24 # f0003018 <_erodata+0xe0001718>
1000179c:	0007a023          	sw	zero,0(a5)
100017a0:	f00037b7          	lui	a5,0xf0003
100017a4:	03878793          	addi	a5,a5,56 # f0003038 <_erodata+0xe0001738>
100017a8:	00200713          	li	a4,2
100017ac:	00e7a023          	sw	a4,0(a5)
100017b0:	f00037b7          	lui	a5,0xf0003
100017b4:	00c78793          	addi	a5,a5,12 # f000300c <_erodata+0xe000170c>
100017b8:	0007a023          	sw	zero,0(a5)
100017bc:	f00037b7          	lui	a5,0xf0003
100017c0:	01c78793          	addi	a5,a5,28 # f000301c <_erodata+0xe000171c>
100017c4:	0007a023          	sw	zero,0(a5)
100017c8:	f00037b7          	lui	a5,0xf0003
100017cc:	03c78793          	addi	a5,a5,60 # f000303c <_erodata+0xe000173c>
100017d0:	00100713          	li	a4,1
100017d4:	00e7a023          	sw	a4,0(a5)
100017d8:	f00037b7          	lui	a5,0xf0003
100017dc:	03c78793          	addi	a5,a5,60 # f000303c <_erodata+0xe000173c>
100017e0:	0007a023          	sw	zero,0(a5)
100017e4:	f00037b7          	lui	a5,0xf0003
100017e8:	03c78793          	addi	a5,a5,60 # f000303c <_erodata+0xe000173c>
100017ec:	0007a683          	lw	a3,0(a5)
100017f0:	f00037b7          	lui	a5,0xf0003
100017f4:	03c78793          	addi	a5,a5,60 # f000303c <_erodata+0xe000173c>
100017f8:	00004737          	lui	a4,0x4
100017fc:	e7e70713          	addi	a4,a4,-386 # 3e7e <_fstack+0x3a7e>
10001800:	00e6e733          	or	a4,a3,a4
10001804:	00e7a023          	sw	a4,0(a5)
10001808:	00000013          	nop
1000180c:	00c12083          	lw	ra,12(sp)
10001810:	00812403          	lw	s0,8(sp)
10001814:	01010113          	addi	sp,sp,16
10001818:	00008067          	ret

Disassembly of section .rodata:

1000181c <_erodata-0xe4>:
	...

Disassembly of section .data:

00000000 <config_stream>:
   0:	2626                	fld	fa2,72(sp)
   2:	2626                	fld	fa2,72(sp)
   4:	6626                	flw	fa2,72(sp)
   6:	6666                	flw	fa2,88(sp)
   8:	6666                	flw	fa2,88(sp)
   a:	0606                	slli	a2,a2,0x1
   c:	2626                	fld	fa2,72(sp)
   e:	2626                	fld	fa2,72(sp)
  10:	6626                	flw	fa2,72(sp)
  12:	6666                	flw	fa2,88(sp)
  14:	6666                	flw	fa2,88(sp)
  16:	0606                	slli	a2,a2,0x1
  18:	2626                	fld	fa2,72(sp)
  1a:	2626                	fld	fa2,72(sp)
  1c:	6626                	flw	fa2,72(sp)
  1e:	6666                	flw	fa2,88(sp)
  20:	6666                	flw	fa2,88(sp)
  22:	0606                	slli	a2,a2,0x1
  24:	2606                	fld	fa2,64(sp)
  26:	2626                	fld	fa2,72(sp)
  28:	6626                	flw	fa2,72(sp)
  2a:	6666                	flw	fa2,88(sp)
  2c:	6666                	flw	fa2,88(sp)
  2e:	0606                	slli	a2,a2,0x1
  30:	2606                	fld	fa2,64(sp)
  32:	2626                	fld	fa2,72(sp)
  34:	6626                	flw	fa2,72(sp)
  36:	6666                	flw	fa2,88(sp)
  38:	6666                	flw	fa2,88(sp)
  3a:	0606                	slli	a2,a2,0x1
  3c:	2606                	fld	fa2,64(sp)
  3e:	2626                	fld	fa2,72(sp)
  40:	6626                	flw	fa2,72(sp)
  42:	6666                	flw	fa2,88(sp)
  44:	6666                	flw	fa2,88(sp)
  46:	0606                	slli	a2,a2,0x1
  48:	2606                	fld	fa2,64(sp)
  4a:	2626                	fld	fa2,72(sp)
  4c:	6626                	flw	fa2,72(sp)
  4e:	6666                	flw	fa2,88(sp)
  50:	6666                	flw	fa2,88(sp)
  52:	0606                	slli	a2,a2,0x1
  54:	0606                	slli	a2,a2,0x1
  56:	2626                	fld	fa2,72(sp)
  58:	6626                	flw	fa2,72(sp)
  5a:	6666                	flw	fa2,88(sp)
  5c:	6666                	flw	fa2,88(sp)
  5e:	0606                	slli	a2,a2,0x1
  60:	0606                	slli	a2,a2,0x1
  62:	2606                	fld	fa2,64(sp)
  64:	6626                	flw	fa2,72(sp)
  66:	6666                	flw	fa2,88(sp)
  68:	6666                	flw	fa2,88(sp)
  6a:	0606                	slli	a2,a2,0x1
  6c:	0606                	slli	a2,a2,0x1
  6e:	2606                	fld	fa2,64(sp)
  70:	2626                	fld	fa2,72(sp)
  72:	6666                	flw	fa2,88(sp)
  74:	6666                	flw	fa2,88(sp)
  76:	0606                	slli	a2,a2,0x1
  78:	0606                	slli	a2,a2,0x1
  7a:	2606                	fld	fa2,64(sp)
  7c:	2626                	fld	fa2,72(sp)
  7e:	6626                	flw	fa2,72(sp)
  80:	6666                	flw	fa2,88(sp)
  82:	0606                	slli	a2,a2,0x1
  84:	0606                	slli	a2,a2,0x1
  86:	0606                	slli	a2,a2,0x1
  88:	0606                	slli	a2,a2,0x1
  8a:	4606                	lw	a2,64(sp)
  8c:	4646                	lw	a2,80(sp)
  8e:	0606                	slli	a2,a2,0x1
  90:	0606                	slli	a2,a2,0x1
  92:	0606                	slli	a2,a2,0x1
  94:	2626                	fld	fa2,72(sp)
  96:	2626                	fld	fa2,72(sp)
  98:	6666                	flw	fa2,88(sp)
  9a:	0606                	slli	a2,a2,0x1
  9c:	0606                	slli	a2,a2,0x1
  9e:	0606                	slli	a2,a2,0x1
  a0:	2626                	fld	fa2,72(sp)
  a2:	2626                	fld	fa2,72(sp)
  a4:	6666                	flw	fa2,88(sp)
  a6:	0606                	slli	a2,a2,0x1
  a8:	0606                	slli	a2,a2,0x1
  aa:	0606                	slli	a2,a2,0x1
  ac:	2606                	fld	fa2,64(sp)
  ae:	2626                	fld	fa2,72(sp)
  b0:	6666                	flw	fa2,88(sp)
  b2:	0606                	slli	a2,a2,0x1
  b4:	0606                	slli	a2,a2,0x1
  b6:	0606                	slli	a2,a2,0x1
  b8:	0606                	slli	a2,a2,0x1
  ba:	2626                	fld	fa2,72(sp)
  bc:	6666                	flw	fa2,88(sp)
  be:	0606                	slli	a2,a2,0x1
  c0:	0606                	slli	a2,a2,0x1
  c2:	0606                	slli	a2,a2,0x1
  c4:	0606                	slli	a2,a2,0x1
  c6:	2626                	fld	fa2,72(sp)
  c8:	6666                	flw	fa2,88(sp)
  ca:	0606                	slli	a2,a2,0x1
  cc:	0606                	slli	a2,a2,0x1
  ce:	0606                	slli	a2,a2,0x1
  d0:	0606                	slli	a2,a2,0x1
  d2:	2626                	fld	fa2,72(sp)
  d4:	6666                	flw	fa2,88(sp)
  d6:	0606                	slli	a2,a2,0x1
  d8:	0606                	slli	a2,a2,0x1
  da:	0606                	slli	a2,a2,0x1
  dc:	0606                	slli	a2,a2,0x1
  de:	2606                	fld	fa2,64(sp)
  e0:	4646                	lw	a2,80(sp)
  e2:	0606                	slli	a2,a2,0x1
  e4:	0606                	slli	a2,a2,0x1
  e6:	0606                	slli	a2,a2,0x1
  e8:	2606                	fld	fa2,64(sp)
  ea:	2606                	fld	fa2,64(sp)
  ec:	0066                	c.slli	zero,0x19
	...

000000f0 <n_bits>:
  f0:	00ed                	addi	ra,ra,27
  f2:	0000                	unimp
  f4:	0000                	unimp
	...

Disassembly of section .bss:

000000f8 <flag-0x8>:
	...

00000100 <flag>:
	...

Disassembly of section .riscv.attributes:

00000000 <.riscv.attributes>:
   0:	1f41                	addi	t5,t5,-16
   2:	0000                	unimp
   4:	7200                	flw	fs0,32(a2)
   6:	7369                	lui	t1,0xffffa
   8:	01007663          	bgeu	zero,a6,14 <config_stream+0x14>
   c:	0015                	c.nop	5
   e:	0000                	unimp
  10:	1004                	addi	s1,sp,32
  12:	7205                	lui	tp,0xfffe1
  14:	3376                	fld	ft6,376(sp)
  16:	6932                	flw	fs2,12(sp)
  18:	7032                	flw	ft0,44(sp)
  1a:	0030                	addi	a2,sp,8
  1c:	0108                	addi	a0,sp,128
  1e:	0b0a                	slli	s6,s6,0x2

Disassembly of section .comment:

00000000 <.comment>:
   0:	3a434347          	fmsub.d	ft6,ft6,ft4,ft7,rmm
   4:	2820                	fld	fs0,80(s0)
   6:	29554e47          	fmsub.s	ft8,fa0,fs5,ft5,rmm
   a:	3120                	fld	fs0,96(a0)
   c:	2e31                	jal	328 <_ebss+0x220>
   e:	2e31                	jal	32a <_ebss+0x222>
  10:	0030                	addi	a2,sp,8
